
clang/bios.clang.elf:	file format elf32-unknown

Disassembly of section .boot:

00000000 <_boot_header>:
       0: 80 02 00 00 00 00 00 00         ........
       8: 20 52 43 37 30 32 20 43          RC702 C
      10: 2d 42 49 4f 53 20 32 30         -BIOS 20
      18: 32 36 2d 30 35 2d 31 35         26-05-15
      20: 20 31 36 3a 34 33 20 2f          16:43 /
      28: 54 68 6f 72 62 6a 6f 65         Thorbjoe
      30: 72 6e 20 52 61 76 6e 20         rn Ravn 
      38: 41 6e 64 65 72 73 65 6e         Andersen
      40: 00 00 00 00 00 00 00 00         ........
      48: 00 00 00 00 00 00 00 00         ........
      50: 00 00 00 00 00 00 00 00         ........
      58: 00 00 00 00 00 00 00 00         ........
      60: 00 00 00 00 00 00 00 00         ........
      68: 00 00 00 00 00 00 00 00         ........
      70: 00 00 00 00 00 00 00 00         ........
      78: 00 00 00 00 00 00 00 00         ........

Disassembly of section .boot_data:

00000080 <_confi_on_disk>:
      80: 47 01 47 01 d7 01 d7 01         G.G.....
      88: 18 04 44 03 e1 05 60 01         ..D...`.
      90: 1b 18 02 10 04 44 03 e1         .....D..
      98: 05 60 01 1f 48 49 4a 4b         .`..HIJK
      a0: 4f 98 7a 6d 03 03 df 28         O.zm...(
      a8: 00 00 06 06 00 fa 00 08         ........
      b0: 08 20 ff ff ff ff ff ff         . ......
      b8: ff ff ff ff ff ff ff ff         ........
      c0: 02 02 00 00 d7 01 03 00         ........
      c8: 00 00 00 00 00 00 00 00         ........
      d0: 00 00 00 00 00 00 00 00         ........
      d8: 00 00 00 00 00 00 00 00         ........
      e0: 00 00 00 00 00 00 00 00         ........
      e8: 00 00 00 00 00 00 00 00         ........
      f0: 00 00 00 00 00 00 00 00         ........
      f8: 00 00 00 00 00 00 00 00         ........

00000100 <_conv_tables>:
     100: 00 01 02 03 04 05 06 07         ........
     108: 08 09 0a 0b 0c 0d 0e 0f         ........
     110: 10 11 12 13 14 15 16 17         ........
     118: 18 19 1a 1b 1c 1d 1e 1f         ........
     120: 20 21 22 23 24 25 26 27          !"#$%&'
     128: 28 29 2a 2b 2c 2d 2e 2f         ()*+,-./
     130: 30 31 32 33 34 35 36 37         01234567
     138: 38 39 3a 3b 3c 3d 3e 3f         89:;<=>?
     140: 40 41 42 43 44 45 46 47         @ABCDEFG
     148: 48 49 4a 4b 4c 4d 4e 4f         HIJKLMNO
     150: 50 51 52 53 54 55 56 57         PQRSTUVW
     158: 58 59 5a 5b 5c 5d 5e 5f         XYZ[\]^_
     160: 60 61 62 63 64 65 66 67         `abcdefg
     168: 68 69 6a 6b 6c 6d 6e 6f         hijklmno
     170: 70 71 72 73 74 75 76 77         pqrstuvw
     178: 78 79 7a 7b 7c 7d 7e 7f         xyz{|}~.
     180: 00 01 02 03 04 05 06 07         ........
     188: 08 09 0a 0b 0c 0d 0e 0f         ........
     190: 10 11 12 13 14 15 16 17         ........
     198: 18 19 1a 1b 1c 1d 1e 1f         ........
     1a0: 20 21 22 23 24 25 26 27          !"#$%&'
     1a8: 28 29 2a 2b 2c 2d 2e 2f         ()*+,-./
     1b0: 30 31 32 33 34 35 36 37         01234567
     1b8: 38 39 3a 3b 3c 3d 3e 3f         89:;<=>?
     1c0: 40 41 42 43 44 45 46 47         @ABCDEFG
     1c8: 48 49 4a 4b 4c 4d 4e 4f         HIJKLMNO
     1d0: 50 51 52 53 54 55 56 57         PQRSTUVW
     1d8: 58 59 5a 5b 5c 5d 5e 5f         XYZ[\]^_
     1e0: 60 61 62 63 64 65 66 67         `abcdefg
     1e8: 68 69 6a 6b 6c 6d 6e 6f         hijklmno
     1f0: 70 71 72 73 74 75 76 77         pqrstuvw
     1f8: 78 79 7a 7b 7c 7d 7e 7f         xyz{|}~.
     200: 80 01 82 03 04 05 86 87         ........
     208: 08 09 0a 0b 0c 0d 0e 8f         ........
     210: 10 91 92 93 14 15 96 97         ........
     218: 18 19 1a 1b 1c 9d 1e 9f         ........
     220: 20 31 32 33 34 35 36 37          1234567
     228: 38 39 aa 30 2d ad 2e 8b         89.0-...
     230: 30 31 32 33 34 35 36 37         01234567
     238: 38 39 ba 30 2d bd 2e 83         89.0-...
     240: 12 86 c2 c3 c4 05 82 c7         ........
     248: 08 c9 0a 84 85 cd ce cf         ........
     250: 81 d1 87 d3 d4 d5 80 d7         ........
     258: 18 d9 1a db dc dd de 30         .......0
     260: e0 8e e2 e3 e4 e5 8a e7         ........
     268: e8 e9 ea 8c 8d ed ee ef         ........
     270: 89 f1 8f f3 f4 f5 88 f7         ........
     278: f8 f9 fa fb fc fd fe 7f         ........

Disassembly of section .boot_code:

00000280 <_coldboot>:
     280: f3           	di
     281: cd 90 02     	call	$290
     284: cd c7 02     	call	$2c7
     287: cd d8 02     	call	$2d8
     28a: 31 00 f5     	ld	sp,$f500
     28d: c3 8f da     	jp	$da8f

00000290 <_relocate_bios>:
; {
     290: 11 b6 ec     	ld	de,$ecb6
;     _bss_compiler_head = 0;
     293: af           	xor	a
     294: 21 b5 ec     	ld	hl,$ecb5
     297: 77           	ld	(hl),a
;     memcpy(&_bss_compiler_head + 1,
     298: 01 01 07     	ld	bc,$701
     29b: 78           	ld	a,b
     29c: b1           	or	c
     29d: 28 02        	jr	z,$2a1
     29f: ed b0        	ldir
;     memcpy((void *)BIOS_BASE,
     2a1: 21 70 04     	ld	hl,$470
     2a4: 11 00 da     	ld	de,$da00
     2a7: 01 b5 12     	ld	bc,$12b5
     2aa: 78           	ld	a,b
     2ab: b1           	or	c
     2ac: 28 02        	jr	z,$2b0
     2ae: ed b0        	ldir
;     memcpy((void *)CFG_ADDR, confi_on_disk, 128);
     2b0: 21 80 00     	ld	hl,$80
     2b3: 11 00 d5     	ld	de,$d500
     2b6: 01 80 00     	ld	bc,$80
     2b9: ed b0        	ldir
;     memcpy((void *)CONV_ADDR, conv_tables, 384);
     2bb: 21 00 01     	ld	hl,$100
     2be: 11 80 f6     	ld	de,$f680
     2c1: 01 80 01     	ld	bc,$180
     2c4: ed b0        	ldir
; }
     2c6: c9           	ret

000002c7 <_verify_relocation>:
;     if (_sentinel_addr != SENTINEL_VALUE)
     2c7: 2a b3 ec     	ld	hl,($ecb3)              ; 0xecb3 <__sentinel_addr>
     2ca: 7c           	ld	a,h
     2cb: ee 18        	xor	$18
     2cd: 57           	ld	d,a
     2ce: 7d           	ld	a,l
     2cf: ee 42        	xor	$42
     2d1: b2           	or	d
     2d2: 20 01        	jr	nz,$2d5
; }
     2d4: c9           	ret
; static inline void intrinsic_halt(void) { __asm__ volatile("halt"); }
     2d5: 76           	halt
;         for (;;) hal_halt();  /* hang — display will show nothing */
     2d6: 18 fd        	jr	$2d5

000002d8 <_bios_hw_init>:
;     memcpy((void *)IVT_ADDR, ivt_template, sizeof(ivt_template));
     2d8: 21 24 00     	ld	hl,$24
     2db: e5           	push	hl
     2dc: 21 00 f6     	ld	hl,$f600
     2df: 11 4c 04     	ld	de,$44c
     2e2: cd ec ea     	call	$eaec
;     set_i_reg(IVT_ADDR >> 8);
     2e5: 3e f6        	ld	a,$f6
     2e7: cd 85 ea     	call	$ea85
; static inline void intrinsic_im_2(void) { __asm__ volatile("im 2"); }
     2ea: ed 5e        	im	2
; DEFPORT(pio_a_ctrl,   PORT_PIO_A_CTRL)
     2ec: 3e 20        	ld	a,$20
     2ee: d3 12        	out	($12),a
; DEFPORT(pio_b_ctrl,   PORT_PIO_B_CTRL)
     2f0: 3e 22        	ld	a,$22
     2f2: d3 13        	out	($13),a
; DEFPORT(pio_a_ctrl,   PORT_PIO_A_CTRL)
     2f4: 3e 4f        	ld	a,$4f
     2f6: d3 12        	out	($12),a
; DEFPORT(pio_b_ctrl,   PORT_PIO_B_CTRL)
     2f8: 3e 0f        	ld	a,$f
     2fa: d3 13        	out	($13),a
; DEFPORT(pio_a_ctrl,   PORT_PIO_A_CTRL)
     2fc: 3e 83        	ld	a,$83
     2fe: d3 12        	out	($12),a
; DEFPORT(pio_b_ctrl,   PORT_PIO_B_CTRL)
     300: d3 13        	out	($13),a
; DEFPORT(ctc0,         PORT_CTC0)
     302: af           	xor	a
     303: d3 0c        	out	($c),a
;     port_out(ctc0, CFG.ctc_mode0);
     305: 3a 00 d5     	ld	a,($d500)               ; 0xd500 <__boot_end+0xd090>
; DEFPORT(ctc0,         PORT_CTC0)
     308: d3 0c        	out	($c),a
;     port_out(ctc0, CFG.ctc_count0);
     30a: 3a 01 d5     	ld	a,($d501)               ; 0xd501 <__boot_end+0xd091>
; DEFPORT(ctc0,         PORT_CTC0)
     30d: d3 0c        	out	($c),a
;     port_out(ctc1, CFG.ctc_mode1);
     30f: 3a 02 d5     	ld	a,($d502)               ; 0xd502 <__boot_end+0xd092>
; DEFPORT(ctc1,         PORT_CTC1)
     312: d3 0d        	out	($d),a
;     port_out(ctc1, CFG.ctc_count1);
     314: 3a 03 d5     	ld	a,($d503)               ; 0xd503 <__boot_end+0xd093>
; DEFPORT(ctc1,         PORT_CTC1)
     317: d3 0d        	out	($d),a
;     port_out(ctc2, CFG.ctc_mode2);
     319: 3a 04 d5     	ld	a,($d504)               ; 0xd504 <__boot_end+0xd094>
; DEFPORT(ctc2,         PORT_CTC2)
     31c: d3 0e        	out	($e),a
;     port_out(ctc2, CFG.ctc_count2);
     31e: 3a 05 d5     	ld	a,($d505)               ; 0xd505 <__boot_end+0xd095>
; DEFPORT(ctc2,         PORT_CTC2)
     321: d3 0e        	out	($e),a
;     port_out(ctc3, CFG.ctc_mode3);
     323: 3a 06 d5     	ld	a,($d506)               ; 0xd506 <__boot_end+0xd096>
; DEFPORT(ctc3,         PORT_CTC3)
     326: d3 0f        	out	($f),a
;     port_out(ctc3, CFG.ctc_count3);
     328: 3a 07 d5     	ld	a,($d507)               ; 0xd507 <__boot_end+0xd097>
; DEFPORT(ctc3,         PORT_CTC3)
     32b: d3 0f        	out	($f),a
;     ASM_VOLATILE(
     32d: 21 08 d5     	ld	hl,$d508
     330: 0e 0a        	ld	c,$a
     332: 06 09        	ld	b,$9
     334: ed b3        	otir
     336: 0e 0b        	ld	c,$b
     338: 06 0b        	ld	b,$b
     33a: ed b3        	otir
; DEFPORT(sio_a_ctrl,   PORT_SIO_A_CTRL)
     33c: db 0a        	in	a,($a)
     33e: 3e 01        	ld	a,$1
     340: d3 0a        	out	($a),a
     342: db 0a        	in	a,($a)
; DEFPORT(sio_b_ctrl,   PORT_SIO_B_CTRL)
     344: db 0b        	in	a,($b)
     346: 3e 01        	ld	a,$1
     348: d3 0b        	out	($b),a
     34a: db 0b        	in	a,($b)
; DEFPORT(dma_cmd,      PORT_DMA_CMD)
     34c: 3e 20        	ld	a,$20
     34e: d3 f8        	out	($f8),a
; DEFPORT(dma_mode,     PORT_DMA_MODE)
     350: 3e 48        	ld	a,$48
     352: d3 fb        	out	($fb),a
     354: 3e 4a        	ld	a,$4a
     356: d3 fb        	out	($fb),a
     358: 3e 4b        	ld	a,$4b
     35a: d3 fb        	out	($fb),a
; DEFPORT(fdc_status,   PORT_FDC_STATUS)
     35c: db 04        	in	a,($4)
;     while (port_in(fdc_status) & (FDC_MSR_CB | FDC_MSR_DRIVE_SEEKING))
     35e: e6 1f        	and	$1f
     360: 20 fa        	jr	nz,$35c
;     fdc_write(0x03);            /* SPECIFY command */
     362: 3e 03        	ld	a,$3
     364: cd 71 da     	call	$da71
;     fdc_write(0xDF);            /* step rate 3ms, head unload 240ms */
     367: 3e df        	ld	a,$df
     369: cd 71 da     	call	$da71
;     fdc_write(0x28);            /* head load 40ms, DMA mode */
     36c: 3e 28        	ld	a,$28
     36e: cd 71 da     	call	$da71
;     memset(DISPLAY_ROW(0), ' ', sizeof(Display));
     371: 21 d0 07     	ld	hl,$7d0
     374: e5           	push	hl
     375: 21 00 f8     	ld	hl,$f800
     378: 11 20 00     	ld	de,$20
     37b: cd f8 ea     	call	$eaf8
;     memset((void *)(WORK_ADDR + 1), 0, 0xFFFF - WORK_ADDR);
     37e: 21 2f 00     	ld	hl,$2f
     381: e5           	push	hl
     382: 21 d1 ff     	ld	hl,$ffd1
     385: 11 00 00     	ld	de,$0
     388: cd f8 ea     	call	$eaf8
; DEFPORT(crt_cmd,      PORT_CRT_CMD)
     38b: af           	xor	a
     38c: d3 01        	out	($1),a
;     port_out(crt_param, CFG.par[0]);   /* chars/row */
     38e: 3a 20 d5     	ld	a,($d520)               ; 0xd520 <__boot_end+0xd0b0>
; DEFPORT(crt_param,    PORT_CRT_PARAM)
     391: d3 00        	out	($0),a
;     port_out(crt_param, CFG.par[1]);   /* rows/frame */
     393: 3a 21 d5     	ld	a,($d521)               ; 0xd521 <__boot_end+0xd0b1>
; DEFPORT(crt_param,    PORT_CRT_PARAM)
     396: d3 00        	out	($0),a
;     port_out(crt_param, CFG.par[2]);   /* lines/char + underline */
     398: 3a 22 d5     	ld	a,($d522)               ; 0xd522 <__boot_end+0xd0b2>
; DEFPORT(crt_param,    PORT_CRT_PARAM)
     39b: d3 00        	out	($0),a
;     port_out(crt_param, CFG.par[3]);   /* cursor format */
     39d: 3a 23 d5     	ld	a,($d523)               ; 0xd523 <__boot_end+0xd0b3>
; DEFPORT(crt_param,    PORT_CRT_PARAM)
     3a0: d3 00        	out	($0),a
; DEFPORT(crt_cmd,      PORT_CRT_CMD)
     3a2: 3e 80        	ld	a,$80
     3a4: d3 01        	out	($1),a
; DEFPORT(crt_param,    PORT_CRT_PARAM)
     3a6: af           	xor	a
     3a7: d3 00        	out	($0),a
     3a9: d3 00        	out	($0),a
; DEFPORT(crt_cmd,      PORT_CRT_CMD)
     3ab: 3e e0        	ld	a,$e0
     3ad: d3 01        	out	($1),a
     3af: 3e 23        	ld	a,$23
     3b1: d3 01        	out	($1),a
;     wr5a = CFG.sioa[6] & 0x60;  /* SIO-A bits/char from WR5 */
     3b3: 3a 0e d5     	ld	a,($d50e)               ; 0xd50e <__boot_end+0xd09e>
     3b6: e6 60        	and	$60
     3b8: 32 34 da     	ld	($da34),a               ; 0xda34 <_bios_jump_vector_table+0x34>
;     wr5b = CFG.siob[6] & 0x60;  /* SIO-B bits/char from WR5 (test console order) */
     3bb: 3a 17 d5     	ld	a,($d517)               ; 0xd517 <__boot_end+0xd0a7>
     3be: e6 60        	and	$60
     3c0: 32 35 da     	ld	($da35),a               ; 0xda35 <_bios_jump_vector_table+0x35>
;     adrmod = xyflg;              /* copy addressing mode (via CFG macro) */
     3c3: 3a 2c d5     	ld	a,($d52c)               ; 0xd52c <__boot_end+0xd0bc>
     3c6: 32 33 da     	ld	($da33),a               ; 0xda33 <_bios_jump_vector_table+0x33>
;     stptim_var = CFG.stptim;
     3c9: 2a 2d d5     	ld	hl,($d52d)              ; 0xd52d <__boot_end+0xd0bd>
     3cc: 22 ea ff     	ld	($ffea),hl              ; 0xffea <__sfrend_sec_rw+0xc33>
;         memcpy((void *)fd0, (const void *)CFG.infd, sizeof(fd0));
     3cf: 21 10 00     	ld	hl,$10
     3d2: e5           	push	hl
     3d3: 21 37 da     	ld	hl,$da37
     3d6: 11 2f d5     	ld	de,$d52f
     3d9: cd ec ea     	call	$eaec
     3dc: 0e 00        	ld	c,$0
;     memset((void *)(WORK_ADDR + 1), 0, 0xFFFF - WORK_ADDR);
     3de: 11 00 00     	ld	de,$0
;         max_drive_num = 0;
     3e1: af           	xor	a
     3e2: 32 cd ee     	ld	($eecd),a               ; 0xeecd <_max_drive_num>
;         for (d = 0; d < 16; d++) {
     3e5: 7b           	ld	a,e
     3e6: fe 10        	cp	$10
     3e8: 28 12        	jr	z,$3fc
;             if (fd0[d] == 0xFF)
     3ea: 21 37 da     	ld	hl,$da37
     3ed: 19           	add	hl,de
     3ee: 7e           	ld	a,(hl)
     3ef: 3c           	inc	a
     3f0: 28 0a        	jr	z,$3fc
;             max_drive_num = d;
     3f2: 6b           	ld	l,e
     3f3: 62           	ld	h,d
     3f4: 4d           	ld	c,l
     3f5: 7d           	ld	a,l
     3f6: 32 cd ee     	ld	($eecd),a               ; 0xeecd <_max_drive_num>
;         for (d = 0; d < 16; d++) {
     3f9: 13           	inc	de
     3fa: 18 e9        	jr	$3e5
;             dph_table[0] = dph0;
     3fc: 21 2c 04     	ld	hl,$42c
     3ff: 11 e0 ee     	ld	de,$eee0
     402: 79           	ld	a,c
;             dph_table[0] = dph0;
     403: 01 10 00     	ld	bc,$10
     406: ed b0        	ldir
;             if (max_drive_num >= 1)
     408: b7           	or	a
     409: 28 0b        	jr	z,$416
;                 dph_table[1] = dph1;
     40b: 21 3c 04     	ld	hl,$43c
     40e: 11 f0 ee     	ld	de,$eef0
     411: 01 10 00     	ld	bc,$10
     414: ed b0        	ldir
;         hostbuf_valid = 0;
     416: af           	xor	a
     417: 32 bc ec     	ld	($ecbc),a               ; 0xecbc <_wb+0x7>
;         hostbuf_dirty = 0;
     41a: 32 bd ec     	ld	($ecbd),a               ; 0xecbd <_wb+0x8>
;         unalloc_count = 0;
     41d: 32 bf ec     	ld	($ecbf),a               ; 0xecbf <_unalloc_count>
;         disk_error = 0;
     420: 32 be ec     	ld	($ecbe),a               ; 0xecbe <_wb+0x9>
;         current_format_idx = 0xFF;       /* force format reload on first SELDSK */
     423: 3e ff        	ld	a,$ff
     425: 32 ce ee     	ld	($eece),a               ; 0xeece <_current_format_idx>
;         last_seek_disk = 0xFF;      /* force seek on first access */
     428: 32 c8 ee     	ld	($eec8),a               ; 0xeec8 <_last_seek_disk>
; }
     42b: c9           	ret

0000042c <_bios_hw_init.dph0>:
     42c: 00 00 00 00 00 00 00 00         ........
     434: 1a ef ae eb e1 ef 9a ef         ........

0000043c <_bios_hw_init.dph1>:
     43c: 00 00 00 00 00 00 00 00         ........
     444: 1a ef ae eb 48 f0 01 f0         ....H...

0000044c <_ivt_template>:
     44c: a2 e4 a2 e4 88 ea a1 ea         ........
     454: a5 e4 a2 e4 a2 e4 a2 e4         ........
     45c: a8 e4 b6 e4 c4 e4 ff e4         ........
     464: 18 e5 26 e5 d3 ea 64 e5         ..&...d.
     46c: ba ea 7d e5                     ..}.

Disassembly of section .text:

0000da71 <_fdc_write>:
; {
    da71: 57           	ld	d,a
; DEFPORT(fdc_status,   PORT_FDC_STATUS)
    da72: db 04        	in	a,($4)
;     while ((port_in(fdc_status) & (FDC_MSR_RQM | FDC_MSR_DIO)) != FDC_MSR_RQM)  /* ready for CPU->FDC */
    da74: ee 80        	xor	$80
    da76: fe 40        	cp	$40
    da78: 30 f8        	jr	nc,$da72
; DEFPORT(fdc_data,     PORT_FDC_DATA)
    da7a: 7a           	ld	a,d
    da7b: d3 05        	out	($5),a
; }
    da7d: c9           	ret

0000da7e <_fdc_irq_wait_rearm>:
;     fdc_irq_wait();
    da7e: cd 88 da     	call	$da88
; static inline void intrinsic_di(void)   { __asm__ volatile("di"); }
    da81: f3           	di
;     fdc_irq_fired = 0;
    da82: af           	xor	a
    da83: 32 15 ef     	ld	($ef15),a               ; 0xef15 <_fdc_irq_fired>
; static inline void intrinsic_ei(void)   { __asm__ volatile("ei"); }
    da86: fb           	ei
; }
    da87: c9           	ret

0000da88 <_fdc_irq_wait>:
;     while (!fdc_irq_fired)
    da88: 3a 15 ef     	ld	a,($ef15)               ; 0xef15 <_fdc_irq_fired>
    da8b: b7           	or	a
    da8c: 28 fa        	jr	z,$da88
; }
    da8e: c9           	ret

0000da8f <_bios_boot_c>:
; DEFPORT(sw1,          PORT_SW1)
    da8f: db 14        	in	a,($14)
;     if (port_in(sw1) & 0x01)
    da91: 0f           	rrca
    da92: 30 04        	jr	nc,$da98
    da94: 3e 97        	ld	a,$97
    da96: 18 02        	jr	$da9a
    da98: 3e 95        	ld	a,$95
    da9a: 32 03 00     	ld	($3),a                  ; 0x3 <_boot_header+0x3>
;     cdisk = 0;
    da9d: af           	xor	a
    da9e: 32 04 00     	ld	($4),a                  ; 0x4 <_boot_header+0x4>
;     __builtin_memset((void *)&wb, 0, sizeof(wb));
    daa1: 21 b5 ec     	ld	hl,$ecb5
    daa4: 77           	ld	(hl),a
    daa5: 11 b6 ec     	ld	de,$ecb6
    daa8: 01 09 00     	ld	bc,$9
    daab: ed b0        	ldir
; static inline void intrinsic_di(void)   { __asm__ volatile("di"); }
    daad: f3           	di
; DEFPORT(sio_a_ctrl,   PORT_SIO_A_CTRL)
    daae: 3e 05        	ld	a,$5
    dab0: d3 0a        	out	($a),a
;     port_out(sio_a_ctrl, wr5a + 0x8A);     /* DTR=1, TX enable, RTS=1 */
    dab2: 3a 34 da     	ld	a,($da34)               ; 0xda34 <_bios_jump_vector_table+0x34>
    dab5: c6 8a        	add	a,$8a
; DEFPORT(sio_a_ctrl,   PORT_SIO_A_CTRL)
    dab7: d3 0a        	out	($a),a
    dab9: 3e 01        	ld	a,$1
    dabb: d3 0a        	out	($a),a
    dabd: 3e 1b        	ld	a,$1b
    dabf: d3 0a        	out	($a),a
; DEFPORT(sio_b_ctrl,   PORT_SIO_B_CTRL)
    dac1: 3e 05        	ld	a,$5
    dac3: d3 0b        	out	($b),a
;     port_out(sio_b_ctrl, wr5b + 0x8A);     /* DTR=1, TX enable, RTS=1 */
    dac5: 3a 35 da     	ld	a,($da35)               ; 0xda35 <_bios_jump_vector_table+0x35>
    dac8: c6 8a        	add	a,$8a
; DEFPORT(sio_b_ctrl,   PORT_SIO_B_CTRL)
    daca: d3 0b        	out	($b),a
    dacc: 3e 01        	ld	a,$1
    dace: d3 0b        	out	($b),a
    dad0: 3e 1f        	ld	a,$1f
    dad2: d3 0b        	out	($b),a
; static inline void intrinsic_ei(void)   { __asm__ volatile("ei"); }
    dad4: fb           	ei
;     puts_p("\x0C"                       /* form feed = clear screen */
    dad5: 21 57 ec     	ld	hl,$ec57
    dad8: cd ed da     	call	$daed
;     if (IOBYTE_CON(iobyte) == IOB_UC1)
    dadb: 3a 03 00     	ld	a,($3)                  ; 0x3 <_boot_header+0x3>
    dade: e6 03        	and	$3
    dae0: fe 03        	cp	$3
    dae2: 20 06        	jr	nz,$daea
;         puts_p("SIO-B debugging enabled (" SIOB_BAUD_STR " 8N1)\r\n");
    dae4: 21 8b ec     	ld	hl,$ec8b
    dae7: cd ed da     	call	$daed
;     wboot_c();
    daea: c3 f9 da     	jp	$daf9

0000daed <_puts_p>:
;     while (*s)
    daed: 7e           	ld	a,(hl)
    daee: 57           	ld	d,a
    daef: b7           	or	a
    daf0: c8           	ret	z
;         bios_conout_c(*s++);
    daf1: 23           	inc	hl
    daf2: e5           	push	hl
    daf3: cd 19 dd     	call	$dd19
    daf6: e1           	pop	hl
;     while (*s)
    daf7: 18 f4        	jr	$daed

0000daf9 <_wboot_c>:
; static inline void intrinsic_ei(void)   { __asm__ volatile("ei"); }
    daf9: fb           	ei
;     bios_seldsk_c(0);
    dafa: af           	xor	a
    dafb: cd 65 db     	call	$db65
;     unalloc_count = 0;
    dafe: af           	xor	a
    daff: 32 bf ec     	ld	($ecbf),a               ; 0xecbf <_unalloc_count>
;     fdc_unit_head = 0;
    db02: 32 c0 ec     	ld	($ecc0),a               ; 0xecc0 <_fdc_unit_head>
;     bios_home();
    db05: cd 31 dc     	call	$dc31
;     cpm_dma_addr = CCP_BASE;
    db08: 21 00 c4     	ld	hl,$c400
    db0b: 22 c1 ec     	ld	($ecc1),hl              ; 0xecc1 <_cpm_dma_addr>
;     cpm_track = 1;
    db0e: 21 01 00     	ld	hl,$1
    db11: 22 c3 ec     	ld	($ecc3),hl              ; 0xecc3 <_cpm_track>
    db14: 21 00 00     	ld	hl,$0
;     for (sec = 0; sec < NSECTS; sec++) {
    db17: 7d           	ld	a,l
    db18: fe 2c        	cp	$2c
    db1a: 28 18        	jr	z,$db34
    db1c: e5           	push	hl
;         cpm_sector = sec;
    db1d: 22 c5 ec     	ld	($ecc5),hl              ; 0xecc5 <_cpm_sector>
;         if (xread()) {
    db20: cd 5e dc     	call	$dc5e
    db23: b7           	or	a
    db24: 20 34        	jr	nz,$db5a
;         cpm_dma_addr += 128;
    db26: 2a c1 ec     	ld	hl,($ecc1)              ; 0xecc1 <_cpm_dma_addr>
    db29: 11 80 00     	ld	de,$80
    db2c: 19           	add	hl,de
    db2d: 22 c1 ec     	ld	($ecc1),hl              ; 0xecc1 <_cpm_dma_addr>
    db30: e1           	pop	hl
;     for (sec = 0; sec < NSECTS; sec++) {
    db31: 23           	inc	hl
    db32: 18 e3        	jr	$db17
;     cpm_dma_addr = BDOS_DMAADDR;
    db34: 21 80 00     	ld	hl,$80
    db37: 22 c1 ec     	ld	($ecc1),hl              ; 0xecc1 <_cpm_dma_addr>
;     wboot_jp  = 0xC3;                        /* JP opcode */
    db3a: 3e c3        	ld	a,$c3
    db3c: 32 00 00     	ld	($0),a                  ; 0x0 <_boot_header>
;     bdos_jp   = 0xC3;                        /* JP opcode, here for the peep hole optimizer */
    db3f: 32 05 00     	ld	($5),a                  ; 0x5 <_boot_header+0x5>
;     wboot_vec = BIOS_BASE + 3;              /* WBOOT entry */
    db42: 21 03 da     	ld	hl,$da03
    db45: 22 01 00     	ld	($1),hl                 ; 0x1 <_boot_header+0x1>
;     bdos_vec  = BDOS_BASE;
    db48: 21 06 cc     	ld	hl,$cc06
    db4b: 22 06 00     	ld	($6),hl                 ; 0x6 <_boot_header+0x6>
;     bios_seldsk_c(0);
    db4e: af           	xor	a
    db4f: cd 65 db     	call	$db65
;     jump_ccp(cdisk & 0b00001111);
    db52: 3a 04 00     	ld	a,($4)                  ; 0x4 <_boot_header+0x4>
    db55: e6 0f        	and	$f
    db57: c3 15 ea     	jp	$ea15
    db5a: 33           	inc	sp
    db5b: 33           	inc	sp
;             puts_p("\r\nDisk read error - reset\r\n");
    db5c: 21 3b ec     	ld	hl,$ec3b
    db5f: cd ed da     	call	$daed
; static inline void intrinsic_halt(void) { __asm__ volatile("halt"); }
    db62: 76           	halt
;             for (;;)
    db63: 18 fd        	jr	$db62

0000db65 <_bios_seldsk_c>:
; {
    db65: 57           	ld	d,a
;     drive = drv;
    db66: 32 cb ee     	ld	($eecb),a               ; 0xeecb <_bios_seldsk_c.drive>
;     if (drive > max_drive_num)
    db69: 3a cd ee     	ld	a,($eecd)               ; 0xeecd <_max_drive_num>
    db6c: 01 00 00     	ld	bc,$0
    db6f: ba           	cp	d
    db70: da 2e dc     	jp	c,$dc2e
;     cpm_disk = drive;
    db73: 7a           	ld	a,d
    db74: 32 c7 ee     	ld	($eec7),a               ; 0xeec7 <_cpm_disk>
;     fmt = fd0[drive];
    db77: 4a           	ld	c,d
    db78: 06 00        	ld	b,$0
    db7a: 21 37 da     	ld	hl,$da37
    db7d: 09           	add	hl,bc
    db7e: 7e           	ld	a,(hl)
    db7f: 57           	ld	d,a
    db80: 32 cc ee     	ld	($eecc),a               ; 0xeecc <_bios_seldsk_c.fmt>
;     if (fmt != current_format_idx) {
    db83: 21 ce ee     	ld	hl,$eece
    db86: be           	cp	(hl)
    db87: 28 17        	jr	z,$dba0
;         if (hostbuf_dirty) {
    db89: 3a bd ec     	ld	a,($ecbd)               ; 0xecbd <_wb+0x8>
    db8c: b7           	or	a
    db8d: 28 11        	jr	z,$dba0
;             wrthst();
    db8f: cd fc e1     	call	$e1fc
;             hostbuf_dirty = 0;
    db92: af           	xor	a
    db93: 32 bd ec     	ld	($ecbd),a               ; 0xecbd <_wb+0x8>
;     current_format_idx = fmt;
    db96: 3a cc ee     	ld	a,($eecc)               ; 0xeecc <_bios_seldsk_c.fmt>
    db99: 57           	ld	d,a
;         entry = &dph_table[drive];
    db9a: 3a cb ee     	ld	a,($eecb)               ; 0xeecb <_bios_seldsk_c.drive>
    db9d: 4f           	ld	c,a
    db9e: 06 00        	ld	b,$0
;     current_format_idx = fmt;
    dba0: ed 43 95 f3  	ld	($f395),bc              ; 0xf395 <__sfrend_wboot_c+0x2>
    dba4: 7a           	ld	a,d
    dba5: 32 ce ee     	ld	($eece),a               ; 0xeece <_current_format_idx>
;         idx = (fmt >> 3) & 3;
    dba8: 0f           	rrca
    dba9: 0f           	rrca
    dbaa: 0f           	rrca
    dbab: e6 03        	and	$3
;         sp = &fspa[idx];
    dbad: 87           	add	a,a
    dbae: 87           	add	a,a
    dbaf: 87           	add	a,a
    dbb0: 57           	ld	d,a
    dbb1: 87           	add	a,a
    dbb2: 4f           	ld	c,a
    dbb3: 06 00        	ld	b,$0
    dbb5: 21 fb eb     	ld	hl,$ebfb
    dbb8: 09           	add	hl,bc
    dbb9: 4d           	ld	c,l
    dbba: 44           	ld	b,h
    dbbb: 22 cf ee     	ld	($eecf),hl              ; 0xeecf <_bios_seldsk_c.sp>
;         current_format = &fdf[idx];
    dbbe: 5a           	ld	e,d
    dbbf: 16 00        	ld	d,$0
    dbc1: 21 db eb     	ld	hl,$ebdb
    dbc4: 19           	add	hl,de
    dbc5: 22 d1 ee     	ld	($eed1),hl              ; 0xeed1 <_current_format>
    dbc8: 11 05 00     	ld	de,$5
;         track0_sectors_per_side = current_format->eot;
    dbcb: 19           	add	hl,de
    dbcc: 7e           	ld	a,(hl)
    dbcd: 32 d3 ee     	ld	($eed3),a               ; 0xeed3 <_track0_sectors_per_side>
;         current_dpb = sp->dpb;
    dbd0: 69           	ld	l,c
    dbd1: 60           	ld	h,b
    dbd2: 5e           	ld	e,(hl)
    dbd3: 23           	inc	hl
    dbd4: 56           	ld	d,(hl)
    dbd5: d5           	push	de
    dbd6: eb           	ex	de,hl
    dbd7: 22 d4 ee     	ld	($eed4),hl              ; 0xeed4 <_current_dpb>
;         records_per_alloc_block = sp->records_per_alloc_block;
    dbda: 69           	ld	l,c
    dbdb: 60           	ld	h,b
    dbdc: 23           	inc	hl
    dbdd: 23           	inc	hl
    dbde: 7e           	ld	a,(hl)
    dbdf: 32 d6 ee     	ld	($eed6),a               ; 0xeed6 <_records_per_alloc_block>
;         cpm_sectors_per_track = sp->cpm_sectors_per_track;
    dbe2: 23           	inc	hl
    dbe3: 5e           	ld	e,(hl)
    dbe4: 23           	inc	hl
    dbe5: 56           	ld	d,(hl)
    dbe6: eb           	ex	de,hl
    dbe7: 22 d7 ee     	ld	($eed7),hl              ; 0xeed7 <_cpm_sectors_per_track>
;         deblock_mask = sp->deblock_mask;
    dbea: 69           	ld	l,c
    dbeb: 60           	ld	h,b
    dbec: 11 05 00     	ld	de,$5
    dbef: 19           	add	hl,de
    dbf0: 7e           	ld	a,(hl)
    dbf1: 32 d9 ee     	ld	($eed9),a               ; 0xeed9 <_deblock_mask>
    dbf4: 11 06 00     	ld	de,$6
;         deblock_shift = sp->deblock_shift;
    dbf7: 69           	ld	l,c
    dbf8: 60           	ld	h,b
    dbf9: 19           	add	hl,de
    dbfa: 7e           	ld	a,(hl)
    dbfb: 32 da ee     	ld	($eeda),a               ; 0xeeda <_deblock_shift>
    dbfe: 11 07 00     	ld	de,$7
;         sector_xlate = sp->sector_xlate;
    dc01: 69           	ld	l,c
    dc02: 60           	ld	h,b
    dc03: 19           	add	hl,de
    dc04: 5e           	ld	e,(hl)
    dc05: 23           	inc	hl
    dc06: 56           	ld	d,(hl)
    dc07: eb           	ex	de,hl
    dc08: 22 db ee     	ld	($eedb),hl              ; 0xeedb <_sector_xlate>
    dc0b: 11 09 00     	ld	de,$9
;         fdc_data_length = sp->fdc_data_length;
    dc0e: 69           	ld	l,c
    dc0f: 60           	ld	h,b
    dc10: 19           	add	hl,de
    dc11: 7e           	ld	a,(hl)
    dc12: 32 dd ee     	ld	($eedd),a               ; 0xeedd <_fdc_data_length>
;         entry = &dph_table[drive];
    dc15: 2a 95 f3     	ld	hl,($f395)              ; 0xf395 <__sfrend_wboot_c+0x2>
    dc18: 29           	add	hl,hl
    dc19: 29           	add	hl,hl
    dc1a: 29           	add	hl,hl
    dc1b: 29           	add	hl,hl
    dc1c: eb           	ex	de,hl
    dc1d: 21 e0 ee     	ld	hl,$eee0
    dc20: 19           	add	hl,de
    dc21: 4d           	ld	c,l
    dc22: 44           	ld	b,h
    dc23: 22 de ee     	ld	($eede),hl              ; 0xeede <_bios_seldsk_c.entry>
    dc26: 11 0a 00     	ld	de,$a
;         entry->dpb = current_dpb;
    dc29: 19           	add	hl,de
    dc2a: d1           	pop	de
    dc2b: 73           	ld	(hl),e
    dc2c: 23           	inc	hl
    dc2d: 72           	ld	(hl),d
; }
    dc2e: 59           	ld	e,c
    dc2f: 50           	ld	d,b
    dc30: c9           	ret

0000dc31 <_bios_home>:
;     if (hostbuf_dirty) {
    dc31: 3a bd ec     	ld	a,($ecbd)               ; 0xecbd <_wb+0x8>
    dc34: b7           	or	a
    dc35: 28 05        	jr	z,$dc3c
;         wrthst();
    dc37: cd fc e1     	call	$e1fc
;     } else {
    dc3a: 18 04        	jr	$dc40
;         hostbuf_valid = 0;
    dc3c: af           	xor	a
    dc3d: 32 bc ec     	ld	($ecbc),a               ; 0xecbc <_wb+0x7>
;     fdstar();
    dc40: cd 06 e2     	call	$e206
;     fdc_unit_head = cpm_disk;
    dc43: 3a c7 ee     	ld	a,($eec7)               ; 0xeec7 <_cpm_disk>
    dc46: 32 c0 ec     	ld	($ecc0),a               ; 0xecc0 <_fdc_unit_head>
;     last_seek_disk = cpm_disk;
    dc49: 32 c8 ee     	ld	($eec8),a               ; 0xeec8 <_last_seek_disk>
;     last_seek_track = 0;
    dc4c: 21 00 00     	ld	hl,$0
    dc4f: 22 c9 ee     	ld	($eec9),hl              ; 0xeec9 <_last_seek_track>
; static inline void intrinsic_di(void)   { __asm__ volatile("di"); }
    dc52: f3           	di
;     fdc_irq_fired = 0;
    dc53: af           	xor	a
    dc54: 32 15 ef     	ld	($ef15),a               ; 0xef15 <_fdc_irq_fired>
; static inline void intrinsic_ei(void)   { __asm__ volatile("ei"); }
    dc57: fb           	ei
;     fdc_recalibrate();
    dc58: cd 29 e2     	call	$e229
;     fdc_irq_wait_rearm();
    dc5b: c3 7e da     	jp	$da7e

0000dc5e <_xread>:
;     unalloc_count = 0;
    dc5e: af           	xor	a
    dc5f: 32 bf ec     	ld	($ecbf),a               ; 0xecbf <_unalloc_count>
;     is_read = 1;
    dc62: 3e 01        	ld	a,$1
    dc64: 32 85 f3     	ld	($f385),a               ; 0xf385 <_is_read>
;     need_pre_read = 1;
    dc67: 32 86 f3     	ld	($f386),a               ; 0xf386 <_need_pre_read>
;     write_type = WRUAL;
    dc6a: 3e 02        	ld	a,$2
    dc6c: 32 87 f3     	ld	($f387),a               ; 0xf387 <_write_type>
;     return rwoper();
    dc6f: c3 fa e8     	jp	$e8fa

0000dc72 <_bios_const>:
;     byte con = IOBYTE_CON(iobyte);
    dc72: 3a 03 00     	ld	a,($3)                  ; 0x3 <_boot_header+0x3>
    dc75: 5f           	ld	e,a
    dc76: e6 03        	and	$3
    dc78: 57           	ld	d,a
;     if ((con & 1) && kbstat)         return 0xFF;
    dc79: 7b           	ld	a,e
    dc7a: 0f           	rrca
    dc7b: 30 08        	jr	nc,$dc85
    dc7d: 3a b7 ec     	ld	a,($ecb7)               ; 0xecb7 <_wb+0x2>
    dc80: 1e ff        	ld	e,$ff
    dc82: b7           	or	a
    dc83: 20 12        	jr	nz,$dc97
;     if ((con != 1) && serial_const()) return 0xFF;
    dc85: 7a           	ld	a,d
    dc86: fe 01        	cp	$1
    dc88: 28 0b        	jr	z,$dc95
;     return (rxtail_b != rxhead_b) ? 0xFF : 0x00;
    dc8a: 3a bb ec     	ld	a,($ecbb)               ; 0xecbb <_wb+0x6>
    dc8d: 1e ff        	ld	e,$ff
;     if ((con != 1) && serial_const()) return 0xFF;
    dc8f: 21 ba ec     	ld	hl,$ecba
    dc92: be           	cp	(hl)
    dc93: 20 02        	jr	nz,$dc97
    dc95: 1e 00        	ld	e,$0
; }
    dc97: 7b           	ld	a,e
    dc98: c9           	ret

0000dc99 <_bios_conin>:
;     byte con = IOBYTE_CON(iobyte);
    dc99: 3a 03 00     	ld	a,($3)                  ; 0x3 <_boot_header+0x3>
    dc9c: 5f           	ld	e,a
    dc9d: e6 03        	and	$3
    dc9f: 57           	ld	d,a
    dca0: 7b           	ld	a,e
    dca1: e6 01        	and	$1
    dca3: 5f           	ld	e,a
;         if ((con & 1) && kbtail != kbhead) return kbd_dequeue();
    dca4: 7b           	ld	a,e
    dca5: b7           	or	a
    dca6: 28 09        	jr	z,$dcb1
    dca8: 3a b6 ec     	ld	a,($ecb6)               ; 0xecb6 <_wb+0x1>
    dcab: 21 b5 ec     	ld	hl,$ecb5
    dcae: be           	cp	(hl)
    dcaf: 20 3e        	jr	nz,$dcef
;         if ((con != 1) && rxtail_b != rxhead_b) return serial_conin();
    dcb1: 7a           	ld	a,d
    dcb2: fe 01        	cp	$1
    dcb4: 28 09        	jr	z,$dcbf
    dcb6: 3a bb ec     	ld	a,($ecbb)               ; 0xecbb <_wb+0x6>
    dcb9: 21 ba ec     	ld	hl,$ecba
    dcbc: be           	cp	(hl)
    dcbd: 20 03        	jr	nz,$dcc2
; static inline void intrinsic_halt(void) { __asm__ volatile("halt"); }
    dcbf: 76           	halt
;     for (;;) {
    dcc0: 18 e2        	jr	$dca4
;     while (rxtail_b == rxhead_b)
    dcc2: 3a bb ec     	ld	a,($ecbb)               ; 0xecbb <_wb+0x6>
    dcc5: be           	cp	(hl)
    dcc6: 28 fa        	jr	z,$dcc2
;     byte new_tail = (rxtail_b + 1) & RXMASK;
    dcc8: 3a bb ec     	ld	a,($ecbb)               ; 0xecbb <_wb+0x6>
    dccb: 3c           	inc	a
    dccc: 5f           	ld	e,a
;     byte ch = rxbuf_b[rxtail_b];
    dccd: 3a bb ec     	ld	a,($ecbb)               ; 0xecbb <_wb+0x6>
    dcd0: 4f           	ld	c,a
    dcd1: 06 00        	ld	b,$0
    dcd3: 21 c7 ed     	ld	hl,$edc7
    dcd6: 09           	add	hl,bc
    dcd7: 56           	ld	d,(hl)
;     rxtail_b = new_tail;
    dcd8: 7b           	ld	a,e
    dcd9: 32 bb ec     	ld	($ecbb),a               ; 0xecbb <_wb+0x6>
;     if (new_tail == rxhead_b) {
    dcdc: 21 ba ec     	ld	hl,$ecba
    dcdf: be           	cp	(hl)
    dce0: 20 35        	jr	nz,$dd17
; DEFPORT(sio_b_ctrl,   PORT_SIO_B_CTRL)
    dce2: 3e 05        	ld	a,$5
    dce4: d3 0b        	out	($b),a
;         port_out(sio_b_ctrl, wr5b + 0x8A);  /* DTR=1, TX enable, RTS=1 */
    dce6: 3a 35 da     	ld	a,($da35)               ; 0xda35 <_bios_jump_vector_table+0x35>
    dce9: c6 8a        	add	a,$8a
; DEFPORT(sio_b_ctrl,   PORT_SIO_B_CTRL)
    dceb: d3 0b        	out	($b),a
    dced: 18 28        	jr	$dd17
;     byte raw = kbbuf[kbtail];
    dcef: 3a b6 ec     	ld	a,($ecb6)               ; 0xecb6 <_wb+0x1>
    dcf2: 5f           	ld	e,a
    dcf3: 16 00        	ld	d,$0
    dcf5: 21 05 ef     	ld	hl,$ef05
    dcf8: 19           	add	hl,de
    dcf9: 4e           	ld	c,(hl)
    dcfa: 06 00        	ld	b,$0
;     kbtail = (kbtail + 1) & (KBBUFSZ - 1);
    dcfc: 3a b6 ec     	ld	a,($ecb6)               ; 0xecb6 <_wb+0x1>
    dcff: 3c           	inc	a
    dd00: e6 0f        	and	$f
    dd02: 32 b6 ec     	ld	($ecb6),a               ; 0xecb6 <_wb+0x1>
;     kbstat = (kbtail != kbhead) ? 0xFF : 0x00;
    dd05: 57           	ld	d,a
    dd06: 3a b5 ec     	ld	a,($ecb5)               ; 0xecb5 <_wb>
    dd09: 5f           	ld	e,a
    dd0a: 7a           	ld	a,d
    dd0b: 93           	sub	e
    dd0c: c6 ff        	add	a,$ff
    dd0e: 9f           	sbc	a,a
    dd0f: 32 b7 ec     	ld	($ecb7),a               ; 0xecb7 <_wb+0x2>
;     return inconv[raw];
    dd12: 21 00 f7     	ld	hl,$f700
    dd15: 09           	add	hl,bc
    dd16: 56           	ld	d,(hl)
; }
    dd17: 7a           	ld	a,d
    dd18: c9           	ret

0000dd19 <_bios_conout_c>:
; {
    dd19: 57           	ld	d,a
;     switch (IOBYTE_CON(iobyte)) {
    dd1a: 3a 03 00     	ld	a,($3)                  ; 0x3 <_boot_header+0x3>
    dd1d: e6 03        	and	$3
    dd1f: fe 03        	cp	$3
    dd21: 28 0c        	jr	z,$dd2f
    dd23: fe 01        	cp	$1
    dd25: 28 13        	jr	z,$dd3a
    dd27: fe 02        	cp	$2
    dd29: 20 04        	jr	nz,$dd2f
;         bios_list_body(c);
    dd2b: 7a           	ld	a,d
    dd2c: c3 09 e1     	jp	$e109
    dd2f: 7a           	ld	a,d
    dd30: 32 97 f3     	ld	($f397),a               ; 0xf397 <__sfrend_bios_seldsk_c>
    dd33: cd 52 dd     	call	$dd52
    dd36: 3a 97 f3     	ld	a,($f397)               ; 0xf397 <__sfrend_bios_seldsk_c>
    dd39: 57           	ld	d,a
    dd3a: 7a           	ld	a,d
    dd3b: 32 da ff     	ld	($ffda),a               ; 0xffda <__sfrend_sec_rw+0xc23>
    dd3e: 3a d7 ff     	ld	a,($ffd7)               ; 0xffd7 <__sfrend_sec_rw+0xc20>
    dd41: b7           	or	a
    dd42: 28 03        	jr	z,$dd47
    dd44: c3 63 dd     	jp	$dd63
    dd47: 7a           	ld	a,d
    dd48: fe 20        	cp	$20
    dd4a: 30 03        	jr	nc,$dd4f
    dd4c: c3 f8 dd     	jp	$ddf8
    dd4f: c3 9c e0     	jp	$e09c

0000dd52 <_serial_conout>:
; static void serial_conout(byte c) {
    dd52: 57           	ld	d,a
;     while (!sio_b_tx_ready)
    dd53: 3a b2 ec     	ld	a,($ecb2)               ; 0xecb2 <_sio_b_tx_ready>
    dd56: b7           	or	a
    dd57: 28 fa        	jr	z,$dd53
; static inline void intrinsic_di(void)   { __asm__ volatile("di"); }
    dd59: f3           	di
;     sio_b_tx_ready = 0;
    dd5a: af           	xor	a
    dd5b: 32 b2 ec     	ld	($ecb2),a               ; 0xecb2 <_sio_b_tx_ready>
; DEFPORT(sio_b_data,   PORT_SIO_B_DATA)
    dd5e: 7a           	ld	a,d
    dd5f: d3 09        	out	($9),a
; static inline void intrinsic_ei(void)   { __asm__ volatile("ei"); }
    dd61: fb           	ei
; }
    dd62: c9           	ret

0000dd63 <_xyadd>:
;     byte val = (usession & 0b01111111) - 32;
    dd63: 3a da ff     	ld	a,($ffda)               ; 0xffda <__sfrend_sec_rw+0xc23>
    dd66: e6 7f        	and	$7f
    dd68: c6 e0        	add	a,$e0
    dd6a: 67           	ld	h,a
;     xflg--;
    dd6b: 3a d7 ff     	ld	a,($ffd7)               ; 0xffd7 <__sfrend_sec_rw+0xc20>
    dd6e: 3d           	dec	a
    dd6f: 32 d7 ff     	ld	($ffd7),a               ; 0xffd7 <__sfrend_sec_rw+0xc20>
;     if (xflg != 0) {
    dd72: 28 05        	jr	z,$dd79
;         adr0 = val;             /* save first coordinate */
    dd74: 7c           	ld	a,h
    dd75: 32 de ff     	ld	($ffde),a               ; 0xffde <__sfrend_sec_rw+0xc27>
; }
    dd78: c9           	ret
;     if (adrmod == 0) {
    dd79: 3a 33 da     	ld	a,($da33)               ; 0xda33 <_bios_jump_vector_table+0x33>
    dd7c: 5f           	ld	e,a
    dd7d: 3a de ff     	ld	a,($ffde)               ; 0xffde <__sfrend_sec_rw+0xc27>
    dd80: 57           	ld	d,a
;     while (x_val >= SCRN_COLS) x_val -= SCRN_COLS;
    dd81: 7b           	ld	a,e
    dd82: b7           	or	a
    dd83: 6a           	ld	l,d
    dd84: 28 01        	jr	z,$dd87
    dd86: 6c           	ld	l,h
;     while (y_val >= SCRN_ROWS) y_val -= SCRN_ROWS;
    dd87: b7           	or	a
    dd88: 28 01        	jr	z,$dd8b
    dd8a: 62           	ld	h,d
    dd8b: 7c           	ld	a,h
    dd8c: 32 9a f3     	ld	($f39a),a               ; 0xf39a <__sfrend_bios_conout_c+0x2>
;     while (x_val >= SCRN_COLS) x_val -= SCRN_COLS;
    dd8f: 3e 4f        	ld	a,$4f
    dd91: bd           	cp	l
    dd92: 7d           	ld	a,l
    dd93: 32 99 f3     	ld	($f399),a               ; 0xf399 <__sfrend_bios_conout_c+0x1>
    dd96: 38 02        	jr	c,$dd9a
    dd98: 2e 4f        	ld	l,$4f
    dd9a: 7d           	ld	a,l
;     while (x_val >= SCRN_COLS) x_val -= SCRN_COLS;
    dd9b: 32 98 f3     	ld	($f398),a               ; 0xf398 <__sfrend_bios_conout_c>
    dd9e: 1e 50        	ld	e,$50
    dda0: cd 15 eb     	call	$eb15
    dda3: f5           	push	af
    dda4: 3a 98 f3     	ld	a,($f398)               ; 0xf398 <__sfrend_bios_conout_c>
    dda7: 57           	ld	d,a
    dda8: f1           	pop	af
    dda9: 92           	sub	d
    ddaa: f5           	push	af
    ddab: 3a 99 f3     	ld	a,($f399)               ; 0xf399 <__sfrend_bios_conout_c+0x1>
    ddae: 57           	ld	d,a
    ddaf: f1           	pop	af
    ddb0: 82           	add	a,d
    ddb1: 32 99 f3     	ld	($f399),a               ; 0xf399 <__sfrend_bios_conout_c+0x1>
;     while (y_val >= SCRN_ROWS) y_val -= SCRN_ROWS;
    ddb4: 3e 18        	ld	a,$18
    ddb6: f5           	push	af
    ddb7: 3a 9a f3     	ld	a,($f39a)               ; 0xf39a <__sfrend_bios_conout_c+0x2>
    ddba: 57           	ld	d,a
    ddbb: f1           	pop	af
    ddbc: ba           	cp	d
    ddbd: 38 02        	jr	c,$ddc1
    ddbf: 16 18        	ld	d,$18
    ddc1: 7a           	ld	a,d
;     while (y_val >= SCRN_ROWS) y_val -= SCRN_ROWS;
    ddc2: 32 98 f3     	ld	($f398),a               ; 0xf398 <__sfrend_bios_conout_c>
    ddc5: 1e 19        	ld	e,$19
    ddc7: cd 15 eb     	call	$eb15
    ddca: f5           	push	af
    ddcb: 3a 98 f3     	ld	a,($f398)               ; 0xf398 <__sfrend_bios_conout_c>
    ddce: 57           	ld	d,a
    ddcf: f1           	pop	af
    ddd0: 92           	sub	d
    ddd1: f5           	push	af
    ddd2: 3a 9a f3     	ld	a,($f39a)               ; 0xf39a <__sfrend_bios_conout_c+0x2>
    ddd5: 57           	ld	d,a
    ddd6: f1           	pop	af
    ddd7: 82           	add	a,d
    ddd8: 57           	ld	d,a
    ddd9: 6f           	ld	l,a
    ddda: 26 00        	ld	h,$0
;     curx = x_val;
    dddc: 3a 99 f3     	ld	a,($f399)               ; 0xf399 <__sfrend_bios_conout_c+0x1>
    dddf: 32 d1 ff     	ld	($ffd1),a               ; 0xffd1 <__sfrend_sec_rw+0xc1a>
;     cursy = y_val;
    dde2: 7a           	ld	a,d
    dde3: 32 d4 ff     	ld	($ffd4),a               ; 0xffd4 <__sfrend_sec_rw+0xc1d>
;     cury = (word)y_val * SCRN_COLS;
    dde6: 5d           	ld	e,l
    dde7: 54           	ld	d,h
    dde8: 29           	add	hl,hl
    dde9: 29           	add	hl,hl
    ddea: 19           	add	hl,de
    ddeb: 29           	add	hl,hl
    ddec: 29           	add	hl,hl
    dded: 29           	add	hl,hl
    ddee: 29           	add	hl,hl
    ddef: 22 d2 ff     	ld	($ffd2),hl              ; 0xffd2 <__sfrend_sec_rw+0xc1b>
;     cur_dirty = 1;              /* deferred to isr_crt for speed */
    ddf2: 3e 01        	ld	a,$1
    ddf4: 32 04 ef     	ld	($ef04),a               ; 0xef04 <_cur_dirty>
; }
    ddf7: c9           	ret

0000ddf8 <_specc>:
;     xflg = 0;
    ddf8: af           	xor	a
    ddf9: 32 d7 ff     	ld	($ffd7),a               ; 0xffd7 <__sfrend_sec_rw+0xc20>
;     if (usession == 0x0D) { carriage_return(); return; }
    ddfc: 3a da ff     	ld	a,($ffda)               ; 0xffda <__sfrend_sec_rw+0xc23>
    ddff: 3d           	dec	a
    de00: fe 1e        	cp	$1e
    de02: 6f           	ld	l,a
    de03: 26 00        	ld	h,$0
    de05: d2 5f e0     	jp	nc,$e05f
    de08: 29           	add	hl,hl
    de09: eb           	ex	de,hl
    de0a: 21 1e eb     	ld	hl,$eb1e
    de0d: 19           	add	hl,de
    de0e: 5e           	ld	e,(hl)
    de0f: 23           	inc	hl
    de10: 56           	ld	d,(hl)
    de11: eb           	ex	de,hl
    de12: 11 00 f8     	ld	de,$f800
    de15: 01 00 00     	ld	bc,$0
    de18: e9           	jp	(hl)
    de19: c3 80 e5     	jp	$e580
;         bits = bgstar[i];
    de1c: 21 71 f0     	ld	hl,$f071
    de1f: ed 43 9f f3  	ld	($f39f),bc              ; 0xf39f <__sfrend_xyadd+0x4>
    de23: 09           	add	hl,bc
    de24: 0e 80        	ld	c,$80
;         while (mask) {
    de26: 79           	ld	a,c
    de27: b7           	or	a
    de28: 28 0d        	jr	z,$de37
;             if (!(bits & mask))
    de2a: a6           	and	(hl)
    de2b: 20 03        	jr	nz,$de30
;                 *p = ' ';
    de2d: 3e 20        	ld	a,$20
    de2f: 12           	ld	(de),a
;             p++;
    de30: 13           	inc	de
;             mask >>= 1;
    de31: 79           	ld	a,c
    de32: cb 3f        	srl	a
    de34: 4f           	ld	c,a
;         while (mask) {
    de35: 18 ef        	jr	$de26
    de37: ed 4b 9f f3  	ld	bc,($f39f)              ; 0xf39f <__sfrend_xyadd+0x4>
;     for (i = 0; i < BGSTAR_SIZE; i++) {
    de3b: 03           	inc	bc
    de3c: 79           	ld	a,c
    de3d: fe fa        	cp	$fa
    de3f: 20 db        	jr	nz,$de1c
    de41: eb           	ex	de,hl
    de42: 22 74 f1     	ld	($f174),hl              ; 0xf174 <_clear_foreground.p>
    de45: c3 5f e0     	jp	$e05f
;     curx = COLUMN0;
    de48: af           	xor	a
    de49: 32 d1 ff     	ld	($ffd1),a               ; 0xffd1 <__sfrend_sec_rw+0xc1a>
;     cur_dirty = 1;              /* deferred to isr_crt for speed */
    de4c: c3 6e e0     	jp	$e06e
;     xflg = 2;
    de4f: 3e 02        	ld	a,$2
    de51: 32 d7 ff     	ld	($ffd7),a               ; 0xffd7 <__sfrend_sec_rw+0xc20>
;     cury = 0;
    de54: 21 00 00     	ld	hl,$0
    de57: 22 d2 ff     	ld	($ffd2),hl              ; 0xffd2 <__sfrend_sec_rw+0xc1b>
;     curx = 0;
    de5a: af           	xor	a
    de5b: 32 d1 ff     	ld	($ffd1),a               ; 0xffd1 <__sfrend_sec_rw+0xc1a>
;     cursy = 0;
    de5e: 32 d4 ff     	ld	($ffd4),a               ; 0xffd4 <__sfrend_sec_rw+0xc1d>
; }
    de61: c9           	ret
;     if (usession == 0x14) { bgflg = 1; return; }
    de62: 3e 01        	ld	a,$1
    de64: 32 70 f0     	ld	($f070),a               ; 0xf070 <_bgflg>
; }
    de67: c9           	ret
; DEFPORT(bell,         PORT_BELL)
    de68: af           	xor	a
    de69: d3 1c        	out	($1c),a
; }
    de6b: c9           	ret
;     if (usession == 0x13) { bgflg = 2; memset(bgstar, 0, BGSTAR_SIZE); return; }
    de6c: 3e 02        	ld	a,$2
    de6e: c3 bc df     	jp	$dfbc
;     if (cury != ROW24_OFFSET)
    de71: 2a d2 ff     	ld	hl,($ffd2)              ; 0xffd2 <__sfrend_sec_rw+0xc1b>
    de74: 4d           	ld	c,l
    de75: 44           	ld	b,h
    de76: 78           	ld	a,b
    de77: ee 07        	xor	$7
    de79: 57           	ld	d,a
    de7a: 79           	ld	a,c
    de7b: ee 80        	xor	$80
    de7d: b2           	or	d
    de7e: 28 1f        	jr	z,$de9f
;         memcpy(screen + cury, screen + cury + SCRN_COLS, ROW24_OFFSET - cury);
    de80: 21 00 f8     	ld	hl,$f800
    de83: 09           	add	hl,bc
    de84: 22 9d f3     	ld	($f39d),hl              ; 0xf39d <__sfrend_xyadd+0x2>
    de87: 11 50 00     	ld	de,$50
    de8a: 19           	add	hl,de
    de8b: 22 9f f3     	ld	($f39f),hl              ; 0xf39f <__sfrend_xyadd+0x4>
    de8e: 21 80 07     	ld	hl,$780
    de91: a7           	and	a
    de92: ed 42        	sbc	hl,bc
    de94: e5           	push	hl
    de95: 2a 9d f3     	ld	hl,($f39d)              ; 0xf39d <__sfrend_xyadd+0x2>
    de98: ed 5b 9f f3  	ld	de,($f39f)              ; 0xf39f <__sfrend_xyadd+0x4>
    de9c: cd ec ea     	call	$eaec
;     memset(DISPLAY_ROW(ROW24), ' ', SCRN_COLS);
    de9f: 21 50 00     	ld	hl,$50
    dea2: e5           	push	hl
    dea3: 21 80 ff     	ld	hl,$ff80
    dea6: 11 20 00     	ld	de,$20
    dea9: cd f8 ea     	call	$eaf8
;     if (bgflg) {
    deac: 3a 70 f0     	ld	a,($f070)               ; 0xf070 <_bgflg>
    deaf: b7           	or	a
    deb0: ca 5f e0     	jp	z,$e05f
;         dl_off = (byte)(cury >> 3);  /* cury is row*80, /8 = row*10 */
    deb3: 2a d2 ff     	ld	hl,($ffd2)              ; 0xffd2 <__sfrend_sec_rw+0xc1b>
    deb6: 5d           	ld	e,l
    deb7: 54           	ld	d,h
;         if (dl_bgcount)
    deb8: 7b           	ld	a,e
    deb9: e6 f8        	and	$f8
    debb: 6f           	ld	l,a
    debc: 7a           	ld	a,d
    debd: e6 07        	and	$7
    debf: ee 07        	xor	$7
    dec1: 67           	ld	h,a
    dec2: 7d           	ld	a,l
    dec3: ee 80        	xor	$80
    dec5: b4           	or	h
    dec6: 28 34        	jr	z,$defc
;         dl_off = (byte)(cury >> 3);  /* cury is row*80, /8 = row*10 */
    dec8: cb 3a        	srl	d
    deca: cb 1b        	rr	e
    decc: cb 3a        	srl	d
    dece: cb 1b        	rr	e
    ded0: cb 3a        	srl	d
    ded2: cb 1b        	rr	e
;         dl_bgcount = BGSTAR_SIZE - BG_ROW_BYTES - dl_off;
    ded4: 21 f0 00     	ld	hl,$f0
    ded7: a7           	and	a
    ded8: ed 52        	sbc	hl,de
    deda: 22 9b f3     	ld	($f39b),hl              ; 0xf39b <__sfrend_xyadd>
;             memcpy(bgstar + dl_off, bgstar + dl_off + BG_ROW_BYTES, dl_bgcount);
    dedd: 16 00        	ld	d,$0
    dedf: 21 71 f0     	ld	hl,$f071
    dee2: 19           	add	hl,de
    dee3: 22 9f f3     	ld	($f39f),hl              ; 0xf39f <__sfrend_xyadd+0x4>
    dee6: 01 0a 00     	ld	bc,$a
    dee9: 09           	add	hl,bc
    deea: 22 9d f3     	ld	($f39d),hl              ; 0xf39d <__sfrend_xyadd+0x2>
    deed: 2a 9b f3     	ld	hl,($f39b)              ; 0xf39b <__sfrend_xyadd>
    def0: 62           	ld	h,d
    def1: e5           	push	hl
    def2: 2a 9f f3     	ld	hl,($f39f)              ; 0xf39f <__sfrend_xyadd+0x4>
    def5: ed 5b 9d f3  	ld	de,($f39d)              ; 0xf39d <__sfrend_xyadd+0x2>
    def9: cd ec ea     	call	$eaec
;         memset(bgstar + BGSTAR_SIZE - BG_ROW_BYTES, 0, BG_ROW_BYTES);
    defc: 21 0a 00     	ld	hl,$a
    deff: e5           	push	hl
    df00: 21 61 f1     	ld	hl,$f161
    df03: c3 96 e0     	jp	$e096
;     count = ROW24_OFFSET - cury;
    df06: 2a d2 ff     	ld	hl,($ffd2)              ; 0xffd2 <__sfrend_sec_rw+0xc1b>
    df09: 4d           	ld	c,l
    df0a: 44           	ld	b,h
;     if (count != 0) {
    df0b: 78           	ld	a,b
    df0c: ee 07        	xor	$7
    df0e: 57           	ld	d,a
    df0f: 79           	ld	a,c
    df10: ee 80        	xor	$80
    df12: b2           	or	d
    df13: 11 80 07     	ld	de,$780
    df16: 28 14        	jr	z,$df2c
;     count = ROW24_OFFSET - cury;
    df18: 21 80 07     	ld	hl,$780
    df1b: a7           	and	a
    df1c: ed 42        	sbc	hl,bc
;         lddr_copy(screen + ROW24_OFFSET - 1,
    df1e: e5           	push	hl
    df1f: 21 7f ff     	ld	hl,$ff7f
    df22: 11 cf ff     	ld	de,$ffcf
    df25: cd 0c eb     	call	$eb0c
;     memset(screen + cury, ' ', SCRN_COLS);
    df28: 2a d2 ff     	ld	hl,($ffd2)              ; 0xffd2 <__sfrend_sec_rw+0xc1b>
    df2b: eb           	ex	de,hl
    df2c: 21 00 f8     	ld	hl,$f800
    df2f: 19           	add	hl,de
    df30: eb           	ex	de,hl
    df31: 21 50 00     	ld	hl,$50
    df34: e5           	push	hl
    df35: eb           	ex	de,hl
    df36: 11 20 00     	ld	de,$20
    df39: cd f8 ea     	call	$eaf8
;     if (bgflg) {
    df3c: 3a 70 f0     	ld	a,($f070)               ; 0xf070 <_bgflg>
    df3f: b7           	or	a
    df40: ca 5f e0     	jp	z,$e05f
;         il_off = (byte)(cury >> 3);
    df43: 2a d2 ff     	ld	hl,($ffd2)              ; 0xffd2 <__sfrend_sec_rw+0xc1b>
    df46: 5d           	ld	e,l
    df47: 54           	ld	d,h
    df48: 4d           	ld	c,l
    df49: 44           	ld	b,h
    df4a: cb 38        	srl	b
    df4c: cb 19        	rr	c
    df4e: cb 38        	srl	b
    df50: cb 19        	rr	c
    df52: cb 38        	srl	b
    df54: cb 19        	rr	c
    df56: 79           	ld	a,c
;         memset(bgstar + il_off, 0, BG_ROW_BYTES);
    df57: 26 00        	ld	h,$0
;         il_off = (byte)(cury >> 3);
    df59: 32 73 f1     	ld	($f173),a               ; 0xf173 <_insert_line.il_off>
;         if (il_bgcount) {
    df5c: 7b           	ld	a,e
    df5d: e6 f8        	and	$f8
    df5f: 5f           	ld	e,a
    df60: 7a           	ld	a,d
    df61: e6 07        	and	$7
    df63: ee 07        	xor	$7
    df65: 57           	ld	d,a
    df66: 7b           	ld	a,e
    df67: ee 80        	xor	$80
    df69: b2           	or	d
    df6a: c2 74 e0     	jp	nz,$e074
    df6d: 44           	ld	b,h
;         if (il_bgcount) {
    df6e: c3 8c e0     	jp	$e08c
;     cursor_right();
    df71: cd ad e5     	call	$e5ad
;     cursor_right();
    df74: cd ad e5     	call	$e5ad
;     cursor_right();
    df77: cd ad e5     	call	$e5ad
    df7a: c3 ad e5     	jp	$e5ad
;     if (cury != ROW0_OFF) {
    df7d: 2a d2 ff     	ld	hl,($ffd2)              ; 0xffd2 <__sfrend_sec_rw+0xc1b>
    df80: 7d           	ld	a,l
    df81: b4           	or	h
    df82: ca 63 e0     	jp	z,$e063
;         rowup();
    df85: c3 4a e6     	jp	$e64a
;     cury = 0;
    df88: 21 00 00     	ld	hl,$0
    df8b: 22 d2 ff     	ld	($ffd2),hl              ; 0xffd2 <__sfrend_sec_rw+0xc1b>
;     curx = 0;
    df8e: af           	xor	a
    df8f: 32 d1 ff     	ld	($ffd1),a               ; 0xffd1 <__sfrend_sec_rw+0xc1a>
;     cursy = 0;
    df92: c3 6b e0     	jp	$e06b
;     memset(screen, ' ', SCRN_SIZE);
    df95: 21 d0 07     	ld	hl,$7d0
    df98: e5           	push	hl
    df99: 21 00 f8     	ld	hl,$f800
    df9c: 11 20 00     	ld	de,$20
    df9f: cd f8 ea     	call	$eaf8
;     cury = 0;
    dfa2: 21 00 00     	ld	hl,$0
    dfa5: 22 d2 ff     	ld	($ffd2),hl              ; 0xffd2 <__sfrend_sec_rw+0xc1b>
;     curx = 0;
    dfa8: af           	xor	a
    dfa9: 32 d1 ff     	ld	($ffd1),a               ; 0xffd1 <__sfrend_sec_rw+0xc1a>
;     cursy = 0;
    dfac: 32 d4 ff     	ld	($ffd4),a               ; 0xffd4 <__sfrend_sec_rw+0xc1d>
;     cur_dirty = 1;              /* deferred to isr_crt for speed */
    dfaf: 3e 01        	ld	a,$1
    dfb1: 32 04 ef     	ld	($ef04),a               ; 0xef04 <_cur_dirty>
;     if (bgflg) {
    dfb4: 3a 70 f0     	ld	a,($f070)               ; 0xf070 <_bgflg>
    dfb7: b7           	or	a
    dfb8: ca 5f e0     	jp	z,$e05f
;         bgflg = 0;
    dfbb: af           	xor	a
    dfbc: 32 70 f0     	ld	($f070),a               ; 0xf070 <_bgflg>
    dfbf: 21 fa 00     	ld	hl,$fa
    dfc2: e5           	push	hl
    dfc3: 21 71 f0     	ld	hl,$f071
    dfc6: c3 96 e0     	jp	$e096
;     if (cury != ROW24_OFFSET)
    dfc9: 2a d2 ff     	ld	hl,($ffd2)              ; 0xffd2 <__sfrend_sec_rw+0xc1b>
    dfcc: 7c           	ld	a,h
    dfcd: ee 07        	xor	$7
    dfcf: 57           	ld	d,a
    dfd0: 7d           	ld	a,l
    dfd1: ee 80        	xor	$80
    dfd3: b2           	or	d
    dfd4: c2 60 e0     	jp	nz,$e060
;         scroll();
    dfd7: c3 f1 e5     	jp	$e5f1
;     pos = cury + curx;
    dfda: 2a d2 ff     	ld	hl,($ffd2)              ; 0xffd2 <__sfrend_sec_rw+0xc1b>
    dfdd: 3a d1 ff     	ld	a,($ffd1)               ; 0xffd1 <__sfrend_sec_rw+0xc1a>
    dfe0: 5f           	ld	e,a
    dfe1: 16 00        	ld	d,$0
    dfe3: 19           	add	hl,de
    dfe4: 4d           	ld	c,l
    dfe5: 44           	ld	b,h
    dfe6: 22 71 f1     	ld	($f171),hl              ; 0xf171 <_erase_to_eos.pos>
;     count = SCRN_SIZE - pos;
    dfe9: 21 d0 07     	ld	hl,$7d0
    dfec: a7           	and	a
    dfed: ed 42        	sbc	hl,bc
    dfef: eb           	ex	de,hl
;     memset(screen + pos, ' ', count);
    dff0: 21 00 f8     	ld	hl,$f800
    dff3: 09           	add	hl,bc
    dff4: 4d           	ld	c,l
    dff5: 44           	ld	b,h
    dff6: eb           	ex	de,hl
    dff7: e5           	push	hl
    dff8: 69           	ld	l,c
    dff9: 60           	ld	h,b
    dffa: 11 20 00     	ld	de,$20
    dffd: cd f8 ea     	call	$eaf8
;     if (bgflg) {
    e000: 3a 70 f0     	ld	a,($f070)               ; 0xf070 <_bgflg>
    e003: b7           	or	a
    e004: c8           	ret	z
;         bgcl_pos = pos;
    e005: 2a 71 f1     	ld	hl,($f171)              ; 0xf171 <_erase_to_eos.pos>
    e008: 5d           	ld	e,l
    e009: 54           	ld	d,h
    e00a: 22 6b f1     	ld	($f16b),hl              ; 0xf16b <_bgcl_pos>
;         bgcl_count = SCRN_SIZE - pos;
    e00d: 21 d0 07     	ld	hl,$7d0
    e010: 18 44        	jr	$e056
;     byte *row = screen + cury;
    e012: 2a d2 ff     	ld	hl,($ffd2)              ; 0xffd2 <__sfrend_sec_rw+0xc1b>
    e015: eb           	ex	de,hl
    e016: 21 00 f8     	ld	hl,$f800
    e019: 19           	add	hl,de
    e01a: 22 9f f3     	ld	($f39f),hl              ; 0xf39f <__sfrend_xyadd+0x4>
;     for (byte i = curx; i < SCRN_COLS; i++)
    e01d: 3a d1 ff     	ld	a,($ffd1)               ; 0xffd1 <__sfrend_sec_rw+0xc1a>
    e020: 67           	ld	h,a
    e021: 3e 50        	ld	a,$50
    e023: bc           	cp	h
    e024: 54           	ld	d,h
    e025: 38 02        	jr	c,$e029
    e027: 16 50        	ld	d,$50
;     for (byte i = curx; i < SCRN_COLS; i++)
    e029: 4c           	ld	c,h
    e02a: 06 00        	ld	b,$0
    e02c: 5a           	ld	e,d
    e02d: 16 00        	ld	d,$0
    e02f: 78           	ld	a,b
    e030: aa           	xor	d
    e031: 67           	ld	h,a
    e032: 79           	ld	a,c
    e033: ab           	xor	e
    e034: b4           	or	h
    e035: 28 0a        	jr	z,$e041
;         row[i] = ' ';
    e037: 2a 9f f3     	ld	hl,($f39f)              ; 0xf39f <__sfrend_xyadd+0x4>
    e03a: 09           	add	hl,bc
    e03b: 3e 20        	ld	a,$20
    e03d: 77           	ld	(hl),a
;     for (byte i = curx; i < SCRN_COLS; i++)
    e03e: 03           	inc	bc
    e03f: 18 ee        	jr	$e02f
;     if (bgflg) {
    e041: 3a 70 f0     	ld	a,($f070)               ; 0xf070 <_bgflg>
    e044: b7           	or	a
    e045: c8           	ret	z
;         bgcl_pos = cury + curx;
    e046: 2a d2 ff     	ld	hl,($ffd2)              ; 0xffd2 <__sfrend_sec_rw+0xc1b>
    e049: 3a d1 ff     	ld	a,($ffd1)               ; 0xffd1 <__sfrend_sec_rw+0xc1a>
    e04c: 5f           	ld	e,a
    e04d: 16 00        	ld	d,$0
    e04f: 19           	add	hl,de
    e050: 22 6b f1     	ld	($f16b),hl              ; 0xf16b <_bgcl_pos>
;         bgcl_count = SCRN_COLS - curx;
    e053: 21 50 00     	ld	hl,$50
    e056: a7           	and	a
    e057: ed 52        	sbc	hl,de
    e059: 22 6d f1     	ld	($f16d),hl              ; 0xf16d <_bgcl_count>
    e05c: c3 61 e6     	jp	$e661
; }
    e05f: c9           	ret
;         rowdn();
    e060: c3 da e5     	jp	$e5da
;         cury = ROW24_OFFSET;
    e063: 21 80 07     	ld	hl,$780
    e066: 22 d2 ff     	ld	($ffd2),hl              ; 0xffd2 <__sfrend_sec_rw+0xc1b>
;         cursy = ROW24;
    e069: 3e 18        	ld	a,$18
    e06b: 32 d4 ff     	ld	($ffd4),a               ; 0xffd4 <__sfrend_sec_rw+0xc1d>
    e06e: 3e 01        	ld	a,$1
    e070: 32 04 ef     	ld	($ef04),a               ; 0xef04 <_cur_dirty>
; }
    e073: c9           	ret
    e074: 54           	ld	d,h
;         il_bgcount = BGSTAR_SIZE - BG_ROW_BYTES - il_off;
    e075: 21 f0 00     	ld	hl,$f0
    e078: a7           	and	a
    e079: ed 42        	sbc	hl,bc
;                       il_bgcount);
    e07b: 62           	ld	h,d
;             lddr_copy(bgstar + BGSTAR_SIZE - BG_ROW_BYTES - 1,
    e07c: e5           	push	hl
    e07d: 21 60 f1     	ld	hl,$f160
    e080: 11 6a f1     	ld	de,$f16a
    e083: cd 0c eb     	call	$eb0c
;         memset(bgstar + il_off, 0, BG_ROW_BYTES);
    e086: 3a 73 f1     	ld	a,($f173)               ; 0xf173 <_insert_line.il_off>
    e089: 4f           	ld	c,a
    e08a: 06 00        	ld	b,$0
    e08c: 21 71 f0     	ld	hl,$f071
    e08f: 09           	add	hl,bc
    e090: eb           	ex	de,hl
    e091: 21 0a 00     	ld	hl,$a
    e094: e5           	push	hl
    e095: eb           	ex	de,hl
    e096: 11 00 00     	ld	de,$0
    e099: c3 f8 ea     	jp	$eaf8

0000e09c <_displ>:
;     byte ch = usession;
    e09c: 3a da ff     	ld	a,($ffda)               ; 0xffda <__sfrend_sec_rw+0xc23>
    e09f: 5f           	ld	e,a
;     locad = cury + curx;
    e0a0: 2a d2 ff     	ld	hl,($ffd2)              ; 0xffd2 <__sfrend_sec_rw+0xc1b>
    e0a3: 3a d1 ff     	ld	a,($ffd1)               ; 0xffd1 <__sfrend_sec_rw+0xc1a>
    e0a6: 4f           	ld	c,a
    e0a7: 06 00        	ld	b,$0
    e0a9: 09           	add	hl,bc
    e0aa: 4d           	ld	c,l
    e0ab: 44           	ld	b,h
    e0ac: 22 d8 ff     	ld	($ffd8),hl              ; 0xffd8 <__sfrend_sec_rw+0xc21>
;     if (ch >= 192)
    e0af: 7b           	ld	a,e
    e0b0: c6 40        	add	a,$40
    e0b2: 57           	ld	d,a
    e0b3: 3e bf        	ld	a,$bf
    e0b5: bb           	cp	e
    e0b6: 38 01        	jr	c,$e0b9
    e0b8: 53           	ld	d,e
;     if (ch >= 128) {
    e0b9: 7a           	ld	a,d
    e0ba: 07           	rlca
    e0bb: 38 10        	jr	c,$e0cd
;     } else if (!graph) {
    e0bd: 3a 76 f1     	ld	a,($f176)               ; 0xf176 <_graph>
    e0c0: b7           	or	a
    e0c1: 20 10        	jr	nz,$e0d3
    e0c3: 5a           	ld	e,d
    e0c4: 16 00        	ld	d,$0
;         ch = outcon[ch];  /* national character conversion (CONFI.COM) */
    e0c6: 21 80 f6     	ld	hl,$f680
    e0c9: 19           	add	hl,de
    e0ca: 56           	ld	d,(hl)
    e0cb: 18 06        	jr	$e0d3
;         graph = ch & 4;         /* set/clear semigraphics mode (sticky) */
    e0cd: 7a           	ld	a,d
    e0ce: e6 04        	and	$4
    e0d0: 32 76 f1     	ld	($f176),a               ; 0xf176 <_graph>
;     screen[locad] = ch;
    e0d3: 21 00 f8     	ld	hl,$f800
    e0d6: 09           	add	hl,bc
    e0d7: 72           	ld	(hl),d
;     if (bgflg == 2)
    e0d8: 3a 70 f0     	ld	a,($f070)               ; 0xf070 <_bgflg>
    e0db: fe 02        	cp	$2
    e0dd: 20 27        	jr	nz,$e106
;         bg_set_bit(locad);
    e0df: 2a d8 ff     	ld	hl,($ffd8)              ; 0xffd8 <__sfrend_sec_rw+0xc21>
    e0e2: 5d           	ld	e,l
    e0e3: 54           	ld	d,h
;     byteoff = (byte)(pos >> 3);
    e0e4: 7d           	ld	a,l
    e0e5: cb 3a        	srl	d
    e0e7: cb 1b        	rr	e
    e0e9: cb 3a        	srl	d
    e0eb: cb 1b        	rr	e
    e0ed: cb 3a        	srl	d
    e0ef: cb 1b        	rr	e
;     bgstar[byteoff] |= (byte)0x80 >> (byte)(pos & 7);
    e0f1: e6 07        	and	$7
    e0f3: 47           	ld	b,a
    e0f4: 3e 80        	ld	a,$80
    e0f6: 04           	inc	b
    e0f7: 05           	dec	b
    e0f8: 28 04        	jr	z,$e0fe
    e0fa: cb 3f        	srl	a
    e0fc: 10 fc        	djnz	$e0fa
    e0fe: 16 00        	ld	d,$0
    e100: 21 71 f0     	ld	hl,$f071
    e103: 19           	add	hl,de
    e104: b6           	or	(hl)
    e105: 77           	ld	(hl),a
;     cursor_right();
    e106: c3 ad e5     	jp	$e5ad

0000e109 <_bios_list_body>:
; {
    e109: 57           	ld	d,a
;     switch (IOBYTE_LST(iobyte)) {
    e10a: 3a 03 00     	ld	a,($3)                  ; 0x3 <_boot_header+0x3>
    e10d: cb 3f        	srl	a
    e10f: cb 3f        	srl	a
    e111: cb 3f        	srl	a
    e113: cb 3f        	srl	a
    e115: cb 3f        	srl	a
    e117: cb 3f        	srl	a
    e119: fe 03        	cp	$3
    e11b: c8           	ret	z
    e11c: fe 01        	cp	$1
    e11e: 28 08        	jr	z,$e128
    e120: fe 02        	cp	$2
    e122: 20 08        	jr	nz,$e12c
;     case IOB_BAT:  list_lpt(c);      break;  /* LPT: SIO-A (data port) */
    e124: 7a           	ld	a,d
    e125: c3 30 e1     	jp	$e130
;     case IOB_CRT:  bios_conout_c(c); break;  /* CRT: display */
    e128: 7a           	ld	a,d
    e129: c3 19 dd     	jp	$dd19
;     case IOB_TTY:  serial_conout(c); break;  /* TTY: SIO-B (console) */
    e12c: 7a           	ld	a,d
    e12d: c3 52 dd     	jp	$dd52

0000e130 <_list_lpt>:
; {
    e130: 57           	ld	d,a
;     while (!sio_a_tx_ready)
    e131: 3a b1 ec     	ld	a,($ecb1)               ; 0xecb1 <_sio_a_tx_ready>
    e134: b7           	or	a
    e135: 28 fa        	jr	z,$e131
; static inline void intrinsic_di(void)   { __asm__ volatile("di"); }
    e137: f3           	di
;     sio_a_tx_ready = 0;                 /* mark busy */
    e138: af           	xor	a
    e139: 32 b1 ec     	ld	($ecb1),a               ; 0xecb1 <_sio_a_tx_ready>
; DEFPORT(sio_a_data,   PORT_SIO_A_DATA)
    e13c: 7a           	ld	a,d
    e13d: d3 08        	out	($8),a
; static inline void intrinsic_ei(void)   { __asm__ volatile("ei"); }
    e13f: fb           	ei
; }
    e140: c9           	ret

0000e141 <_bios_punch_body>:
; {
    e141: 57           	ld	d,a
;     switch (IOBYTE_PUN(iobyte)) {
    e142: 3a 03 00     	ld	a,($3)                  ; 0x3 <_boot_header+0x3>
    e145: 0f           	rrca
    e146: 0f           	rrca
    e147: 0f           	rrca
    e148: 0f           	rrca
    e149: e6 03        	and	$3
    e14b: 5f           	ld	e,a
    e14c: fe 02        	cp	$2
    e14e: 30 11        	jr	nc,$e161
;         while (!sio_a_tx_ready)
    e150: 3a b1 ec     	ld	a,($ecb1)               ; 0xecb1 <_sio_a_tx_ready>
    e153: b7           	or	a
    e154: 28 fa        	jr	z,$e150
; static inline void intrinsic_di(void)   { __asm__ volatile("di"); }
    e156: f3           	di
;         sio_a_tx_ready = 0;                 /* mark busy */
    e157: af           	xor	a
    e158: 32 b1 ec     	ld	($ecb1),a               ; 0xecb1 <_sio_a_tx_ready>
; DEFPORT(sio_a_data,   PORT_SIO_A_DATA)
    e15b: 7a           	ld	a,d
    e15c: d3 08        	out	($8),a
; static inline void intrinsic_ei(void)   { __asm__ volatile("ei"); }
    e15e: fb           	ei
    e15f: 18 07        	jr	$e168
;     switch (IOBYTE_PUN(iobyte)) {
    e161: fe 02        	cp	$2
    e163: c0           	ret	nz
;         list_lpt(c);
    e164: 7a           	ld	a,d
    e165: c3 30 e1     	jp	$e130
; }
    e168: c9           	ret

0000e169 <_bios_reader_body>:
;     switch (IOBYTE_RDR(iobyte)) {
    e169: 3a 03 00     	ld	a,($3)                  ; 0x3 <_boot_header+0x3>
    e16c: 0f           	rrca
    e16d: 0f           	rrca
    e16e: e6 03        	and	$3
    e170: 57           	ld	d,a
    e171: fe 02        	cp	$2
    e173: 30 37        	jr	nc,$e1ac
    e175: 11 b8 ec     	ld	de,$ecb8
;         while (rxtail_a == rxhead_a)
    e178: 3a b9 ec     	ld	a,($ecb9)               ; 0xecb9 <_wb+0x4>
    e17b: 6b           	ld	l,e
    e17c: 62           	ld	h,d
    e17d: be           	cp	(hl)
    e17e: 28 f8        	jr	z,$e178
;         new_tail = (rxtail_a + 1) & RXMASK;
    e180: 3a b9 ec     	ld	a,($ecb9)               ; 0xecb9 <_wb+0x4>
    e183: 3c           	inc	a
    e184: f5           	push	af
;         ch = rxbuf_a[rxtail_a];
    e185: 3a b9 ec     	ld	a,($ecb9)               ; 0xecb9 <_wb+0x4>
    e188: 6f           	ld	l,a
    e189: 26 00        	ld	h,$0
    e18b: 22 a2 f3     	ld	($f3a2),hl              ; 0xf3a2 <__sfrend_specc+0x1>
    e18e: 21 c7 ec     	ld	hl,$ecc7
    e191: ed 4b a2 f3  	ld	bc,($f3a2)              ; 0xf3a2 <__sfrend_specc+0x1>
    e195: 09           	add	hl,bc
    e196: 4e           	ld	c,(hl)
    e197: f1           	pop	af
;         rxtail_a = new_tail;
    e198: 32 b9 ec     	ld	($ecb9),a               ; 0xecb9 <_wb+0x4>
;         if (new_tail == rxhead_a) {
    e19b: eb           	ex	de,hl
    e19c: be           	cp	(hl)
    e19d: 20 32        	jr	nz,$e1d1
; DEFPORT(sio_a_ctrl,   PORT_SIO_A_CTRL)
    e19f: 3e 05        	ld	a,$5
    e1a1: d3 0a        	out	($a),a
;             port_out(sio_a_ctrl, wr5a + 0x8A); /* DTR=1, TX enable, RTS=1 */
    e1a3: 3a 34 da     	ld	a,($da34)               ; 0xda34 <_bios_jump_vector_table+0x34>
    e1a6: c6 8a        	add	a,$8a
; DEFPORT(sio_a_ctrl,   PORT_SIO_A_CTRL)
    e1a8: d3 0a        	out	($a),a
    e1aa: 18 25        	jr	$e1d1
;     switch (IOBYTE_RDR(iobyte)) {
    e1ac: fe 02        	cp	$2
    e1ae: 20 1f        	jr	nz,$e1cf
    e1b0: 21 ba ec     	ld	hl,$ecba
;         while (rxtail_b == rxhead_b)
    e1b3: 3a bb ec     	ld	a,($ecbb)               ; 0xecbb <_wb+0x6>
    e1b6: be           	cp	(hl)
    e1b7: 28 fa        	jr	z,$e1b3
;         new_tail = (rxtail_b + 1) & RXMASK;
    e1b9: 3a bb ec     	ld	a,($ecbb)               ; 0xecbb <_wb+0x6>
    e1bc: 3c           	inc	a
    e1bd: 57           	ld	d,a
;         ch = rxbuf_b[rxtail_b];
    e1be: 3a bb ec     	ld	a,($ecbb)               ; 0xecbb <_wb+0x6>
    e1c1: 4f           	ld	c,a
    e1c2: 06 00        	ld	b,$0
    e1c4: 21 c7 ed     	ld	hl,$edc7
    e1c7: 09           	add	hl,bc
    e1c8: 4e           	ld	c,(hl)
;         rxtail_b = new_tail;
    e1c9: 7a           	ld	a,d
    e1ca: 32 bb ec     	ld	($ecbb),a               ; 0xecbb <_wb+0x6>
    e1cd: 18 02        	jr	$e1d1
    e1cf: 0e 1a        	ld	c,$1a
; }
    e1d1: 79           	ld	a,c
    e1d2: c9           	ret

0000e1d3 <_bios_reads_body>:
;     switch (IOBYTE_RDR(iobyte)) {
    e1d3: 3a 03 00     	ld	a,($3)                  ; 0x3 <_boot_header+0x3>
    e1d6: 0f           	rrca
    e1d7: 0f           	rrca
    e1d8: e6 03        	and	$3
    e1da: 57           	ld	d,a
    e1db: fe 02        	cp	$2
    e1dd: 30 09        	jr	nc,$e1e8
;         return (rxtail_a != rxhead_a) ? 0xFF : 0x00;
    e1df: 3a b9 ec     	ld	a,($ecb9)               ; 0xecb9 <_wb+0x4>
    e1e2: 57           	ld	d,a
    e1e3: 3a b8 ec     	ld	a,($ecb8)               ; 0xecb8 <_wb+0x3>
    e1e6: 18 0b        	jr	$e1f3
;     switch (IOBYTE_RDR(iobyte)) {
    e1e8: fe 02        	cp	$2
    e1ea: 20 0e        	jr	nz,$e1fa
;         return (rxtail_b != rxhead_b) ? 0xFF : 0x00;
    e1ec: 3a bb ec     	ld	a,($ecbb)               ; 0xecbb <_wb+0x6>
    e1ef: 57           	ld	d,a
    e1f0: 3a ba ec     	ld	a,($ecba)               ; 0xecba <_wb+0x5>
    e1f3: 5f           	ld	e,a
    e1f4: 7a           	ld	a,d
    e1f5: 93           	sub	e
    e1f6: c6 ff        	add	a,$ff
    e1f8: 9f           	sbc	a,a
; }
    e1f9: c9           	ret
    e1fa: af           	xor	a
; }
    e1fb: c9           	ret

0000e1fc <_wrthst>:
;     chktrk();
    e1fc: cd 68 e7     	call	$e768
;     sec_rw(5, 1);               /* WRITE DATA, mem→FDC */
    e1ff: 3e 05        	ld	a,$5
    e201: 2e 01        	ld	l,$1
    e203: c3 ec e7     	jp	$e7ec

0000e206 <_fdstar>:
; DEFPORT(sw1,          PORT_SW1)
    e206: db 14        	in	a,($14)
;     if (!(port_in(sw1) & 0b10000000))    /* maxi: no motor control */
    e208: 07           	rlca
    e209: d0           	ret	nc
; static inline void intrinsic_di(void)   { __asm__ volatile("di"); }
    e20a: f3           	di
;     if (timer2 == 0) {
    e20b: 2a e1 ff     	ld	hl,($ffe1)              ; 0xffe1 <__sfrend_sec_rw+0xc2a>
    e20e: eb           	ex	de,hl
    e20f: 3a e7 ff     	ld	a,($ffe7)               ; 0xffe7 <__sfrend_sec_rw+0xc30>
    e212: 6f           	ld	l,a
    e213: 26 00        	ld	h,$0
    e215: 22 e1 ff     	ld	($ffe1),hl              ; 0xffe1 <__sfrend_sec_rw+0xc2a>
; static inline void intrinsic_ei(void)   { __asm__ volatile("ei"); }
    e218: fb           	ei
;     if (timer2 == 0) {
    e219: eb           	ex	de,hl
    e21a: 7d           	ld	a,l
    e21b: b4           	or	h
    e21c: 28 01        	jr	z,$e21f
; }
    e21e: c9           	ret
; DEFPORT(sw1,          PORT_SW1)
    e21f: 3e 01        	ld	a,$1
    e221: d3 14        	out	($14),a
;         waitd(50);              /* 50 * 20ms = 1 second */
    e223: 21 32 00     	ld	hl,$32
    e226: c3 70 e3     	jp	$e370

0000e229 <_fdc_recalibrate>:
;     fdc_write(0x07);            /* RECALIBRATE */
    e229: 3e 07        	ld	a,$7
    e22b: cd 71 da     	call	$da71
;     fdc_write(fdc_unit_head & 3);      /* drive */
    e22e: 3a c0 ec     	ld	a,($ecc0)               ; 0xecc0 <_fdc_unit_head>
    e231: e6 03        	and	$3
    e233: c3 71 da     	jp	$da71

0000e236 <_bios_read>:
;     return xread();
    e236: c3 5e dc     	jp	$dc5e

0000e239 <_bios_write_c>:
; {
    e239: 57           	ld	d,a
;     is_read = 0;
    e23a: af           	xor	a
    e23b: 32 85 f3     	ld	($f385),a               ; 0xf385 <_is_read>
;     write_type = wt;
    e23e: 7a           	ld	a,d
    e23f: 32 87 f3     	ld	($f387),a               ; 0xf387 <_write_type>
;     if (wt == WRUAL) {
    e242: fe 02        	cp	$2
    e244: 20 18        	jr	nz,$e25e
;         unalloc_count = records_per_alloc_block;
    e246: 3a d6 ee     	ld	a,($eed6)               ; 0xeed6 <_records_per_alloc_block>
    e249: 4f           	ld	c,a
;         unalloc_disk = cpm_disk;
    e24a: 3a c7 ee     	ld	a,($eec7)               ; 0xeec7 <_cpm_disk>
    e24d: 32 8a f3     	ld	($f38a),a               ; 0xf38a <_unalloc_disk>
;         unalloc_track = cpm_track;
    e250: 2a c3 ec     	ld	hl,($ecc3)              ; 0xecc3 <_cpm_track>
    e253: 22 8b f3     	ld	($f38b),hl              ; 0xf38b <_unalloc_track>
;         unalloc_sector = cpm_sector;
    e256: 2a c5 ec     	ld	hl,($ecc5)              ; 0xecc5 <_cpm_sector>
    e259: 22 8d f3     	ld	($f38d),hl              ; 0xf38d <_unalloc_sector>
    e25c: 18 04        	jr	$e262
;     if (unalloc_count) {
    e25e: 3a bf ec     	ld	a,($ecbf)               ; 0xecbf <_unalloc_count>
    e261: 4f           	ld	c,a
    e262: 79           	ld	a,c
    e263: b7           	or	a
    e264: 28 71        	jr	z,$e2d7
;         unalloc_count--;
    e266: 3d           	dec	a
    e267: 32 bf ec     	ld	($ecbf),a               ; 0xecbf <_unalloc_count>
;         if (cpm_disk != unalloc_disk || cpm_track != unalloc_track || cpm_sector != unalloc_sector)
    e26a: 3a c7 ee     	ld	a,($eec7)               ; 0xeec7 <_cpm_disk>
    e26d: 21 8a f3     	ld	hl,$f38a
    e270: be           	cp	(hl)
    e271: 20 64        	jr	nz,$e2d7
    e273: 2a c3 ec     	ld	hl,($ecc3)              ; 0xecc3 <_cpm_track>
    e276: eb           	ex	de,hl
    e277: 2a 8b f3     	ld	hl,($f38b)              ; 0xf38b <_unalloc_track>
    e27a: 7a           	ld	a,d
    e27b: ac           	xor	h
    e27c: 67           	ld	h,a
    e27d: 7b           	ld	a,e
    e27e: ad           	xor	l
    e27f: b4           	or	h
    e280: 20 55        	jr	nz,$e2d7
    e282: 2a c5 ec     	ld	hl,($ecc5)              ; 0xecc5 <_cpm_sector>
    e285: 4d           	ld	c,l
    e286: 44           	ld	b,h
    e287: 2a 8d f3     	ld	hl,($f38d)              ; 0xf38d <_unalloc_sector>
    e28a: 78           	ld	a,b
    e28b: ac           	xor	h
    e28c: 67           	ld	h,a
    e28d: 79           	ld	a,c
    e28e: ad           	xor	l
    e28f: b4           	or	h
    e290: 20 45        	jr	nz,$e2d7
    e292: 69           	ld	l,c
    e293: 22 a6 f3     	ld	($f3a6),hl              ; 0xf3a6 <__sfrend_bios_reader_body+0x2>
;         unalloc_sector++;
    e296: 03           	inc	bc
    e297: 69           	ld	l,c
    e298: 60           	ld	h,b
    e299: 22 8d f3     	ld	($f38d),hl              ; 0xf38d <_unalloc_sector>
;         if (unalloc_sector >= cpm_sectors_per_track) {
    e29c: 2a d7 ee     	ld	hl,($eed7)              ; 0xeed7 <_cpm_sectors_per_track>
    e29f: 79           	ld	a,c
    e2a0: 95           	sub	l
    e2a1: 78           	ld	a,b
    e2a2: 9c           	sbc	a,h
    e2a3: 38 0b        	jr	c,$e2b0
;             unalloc_sector = 0;
    e2a5: 21 00 00     	ld	hl,$0
    e2a8: 22 8d f3     	ld	($f38d),hl              ; 0xf38d <_unalloc_sector>
;             unalloc_track++;
    e2ab: 13           	inc	de
    e2ac: eb           	ex	de,hl
    e2ad: 22 8b f3     	ld	($f38b),hl              ; 0xf38b <_unalloc_track>
;         need_pre_read = 0;
    e2b0: 26 00        	ld	h,$0
    e2b2: af           	xor	a
    e2b3: 32 86 f3     	ld	($f386),a               ; 0xf386 <_need_pre_read>
;         if ((cpm_sector & deblock_mask) == deblock_mask)
    e2b6: 3a d9 ee     	ld	a,($eed9)               ; 0xeed9 <_deblock_mask>
    e2b9: 57           	ld	d,a
    e2ba: 4f           	ld	c,a
    e2bb: 06 00        	ld	b,$0
    e2bd: c5           	push	bc
    e2be: ed 4b a6 f3  	ld	bc,($f3a6)              ; 0xf3a6 <__sfrend_bios_reader_body+0x2>
    e2c2: 79           	ld	a,c
    e2c3: a2           	and	d
    e2c4: 6f           	ld	l,a
    e2c5: d1           	pop	de
    e2c6: 7c           	ld	a,h
    e2c7: aa           	xor	d
    e2c8: 47           	ld	b,a
    e2c9: 7d           	ld	a,l
    e2ca: ab           	xor	e
    e2cb: b0           	or	b
    e2cc: d6 01        	sub	$1
    e2ce: 9f           	sbc	a,a
    e2cf: e6 01        	and	$1
    e2d1: 32 89 f3     	ld	($f389),a               ; 0xf389 <_unalloc_mask>
    e2d4: c3 fa e8     	jp	$e8fa
;     unalloc_count = 0;
    e2d7: af           	xor	a
    e2d8: 32 bf ec     	ld	($ecbf),a               ; 0xecbf <_unalloc_count>
;     need_pre_read = deblock_mask;
    e2db: 3a d9 ee     	ld	a,($eed9)               ; 0xeed9 <_deblock_mask>
    e2de: 32 86 f3     	ld	($f386),a               ; 0xf386 <_need_pre_read>
    e2e1: c3 fa e8     	jp	$e8fa

0000e2e4 <_bios_listst>:
;     switch (IOBYTE_LST(iobyte)) {
    e2e4: 3a 03 00     	ld	a,($3)                  ; 0x3 <_boot_header+0x3>
    e2e7: cb 3f        	srl	a
    e2e9: cb 3f        	srl	a
    e2eb: cb 3f        	srl	a
    e2ed: cb 3f        	srl	a
    e2ef: cb 3f        	srl	a
    e2f1: cb 3f        	srl	a
    e2f3: fe 03        	cp	$3
    e2f5: 28 0f        	jr	z,$e306
    e2f7: fe 01        	cp	$1
    e2f9: 28 08        	jr	z,$e303
    e2fb: fe 02        	cp	$2
    e2fd: 20 09        	jr	nz,$e308
;     case IOB_BAT:  return sio_a_tx_ready;   /* LPT: SIO-A TX ready */
    e2ff: 3a b1 ec     	ld	a,($ecb1)               ; 0xecb1 <_sio_a_tx_ready>
; }
    e302: c9           	ret
    e303: 3e ff        	ld	a,$ff
; }
    e305: c9           	ret
    e306: af           	xor	a
; }
    e307: c9           	ret
;     case IOB_TTY:  return sio_b_tx_ready;   /* SIO-B TX ready (console) */
    e308: 3a b2 ec     	ld	a,($ecb2)               ; 0xecb2 <_sio_b_tx_ready>
; }
    e30b: c9           	ret

0000e30c <_bios_linsel_body>:
;     while (!(sio_rd1() & 0b00000001))
    e30c: cd 5b e3     	call	$e35b
    e30f: 0f           	rrca
    e310: 30 fa        	jr	nc,$e30c
;     waitd(2);
    e312: 21 02 00     	ld	hl,$2
    e315: cd 70 e3     	call	$e370
; static inline void intrinsic_di(void)   { __asm__ volatile("di"); }
    e318: f3           	di
;     sio_wr5(0x00);
    e319: af           	xor	a
    e31a: cd 7b e3     	call	$e37b
    e31d: 1e 00        	ld	e,$0
; static inline void intrinsic_ei(void)   { __asm__ volatile("ei"); }
    e31f: fb           	ei
;     if (ls_line == 0)
    e320: 3a 00 ef     	ld	a,($ef00)               ; 0xef00 <_ls_line>
    e323: 57           	ld	d,a
    e324: b7           	or	a
    e325: 28 32        	jr	z,$e359
;         wr5val = (byte)(ls_line << 1);      /* RTS bit position */
    e327: 87           	add	a,a
; static inline void intrinsic_di(void)   { __asm__ volatile("di"); }
    e328: f5           	push	af
    e329: f3           	di
;         sio_wr5(wr5val);
    e32a: cd 7b e3     	call	$e37b
; static inline void intrinsic_ei(void)   { __asm__ volatile("ei"); }
    e32d: fb           	ei
;         wr5val |= 0b10000000;                     /* add DTR */
    e32e: f1           	pop	af
    e32f: f6 80        	or	$80
; static inline void intrinsic_di(void)   { __asm__ volatile("di"); }
    e331: f3           	di
;         sio_wr5(wr5val);
    e332: cd 7b e3     	call	$e37b
; static inline void intrinsic_ei(void)   { __asm__ volatile("ei"); }
    e335: fb           	ei
;     waitd(2);
    e336: 21 02 00     	ld	hl,$2
    e339: cd 70 e3     	call	$e370
;     if ((ls_port ? rr0_b : rr0_a) & 0b00100000)
    e33c: 3a 01 ef     	ld	a,($ef01)               ; 0xef01 <_ls_port>
    e33f: b7           	or	a
    e340: 28 05        	jr	z,$e347
    e342: 11 02 ef     	ld	de,$ef02
    e345: 18 03        	jr	$e34a
    e347: 11 03 ef     	ld	de,$ef03
;     if ((ls_port ? rr0_b : rr0_a) & 0b00100000)
    e34a: 1a           	ld	a,(de)
    e34b: e6 20        	and	$20
    e34d: 1e ff        	ld	e,$ff
    e34f: 20 08        	jr	nz,$e359
; static inline void intrinsic_di(void)   { __asm__ volatile("di"); }
    e351: f3           	di
;     sio_wr5(0x00);
    e352: af           	xor	a
    e353: cd 7b e3     	call	$e37b
    e356: 1e 00        	ld	e,$0
; static inline void intrinsic_ei(void)   { __asm__ volatile("ei"); }
    e358: fb           	ei
; }
    e359: 7b           	ld	a,e
    e35a: c9           	ret

0000e35b <_sio_rd1>:
;     byte port = ls_port ? PORT_SIO_B_CTRL : PORT_SIO_A_CTRL;
    e35b: 3a 01 ef     	ld	a,($ef01)               ; 0xef01 <_ls_port>
    e35e: b7           	or	a
    e35f: 28 05        	jr	z,$e366
    e361: 01 0b 00     	ld	bc,$b
    e364: 18 03        	jr	$e369
    e366: 01 0a 00     	ld	bc,$a
;     port_out_rt(port, 1);
    e369: 3e 01        	ld	a,$1
    e36b: ed 79        	out	(c),a
;     return port_in_rt(port);
    e36d: ed 78        	in	a,(c)
    e36f: c9           	ret

0000e370 <_waitd>:
;     delay_ticks = ticks;
    e370: 22 e3 ff     	ld	($ffe3),hl              ; 0xffe3 <__sfrend_sec_rw+0xc2c>
;     while (delay_ticks)
    e373: 2a e3 ff     	ld	hl,($ffe3)              ; 0xffe3 <__sfrend_sec_rw+0xc2c>
    e376: 7d           	ld	a,l
    e377: b4           	or	h
    e378: 20 f9        	jr	nz,$e373
; }
    e37a: c9           	ret

0000e37b <_sio_wr5>:
; static void NOINLINE sio_wr5(byte val) {
    e37b: 57           	ld	d,a
;     byte port = ls_port ? PORT_SIO_B_CTRL : PORT_SIO_A_CTRL;
    e37c: 3a 01 ef     	ld	a,($ef01)               ; 0xef01 <_ls_port>
    e37f: b7           	or	a
    e380: 28 05        	jr	z,$e387
    e382: 01 0b 00     	ld	bc,$b
    e385: 18 03        	jr	$e38a
    e387: 01 0a 00     	ld	bc,$a
;     port_out_rt(port, 5);
    e38a: 3e 05        	ld	a,$5
    e38c: ed 79        	out	(c),a
;     port_out_rt(port, val);
    e38e: 7a           	ld	a,d
    e38f: ed 79        	out	(c),a
; }
    e391: c9           	ret

0000e392 <_bios_hrdfmt>:
; void bios_hrdfmt(void) { }
    e392: c9           	ret

0000e393 <_isr_crt>:
; DEFPORT(crt_cmd,      PORT_CRT_CMD)
    e393: db 01        	in	a,($1)
; DEFPORT(dma_smsk,     PORT_DMA_SMSK)
    e395: 3e 06        	ld	a,$6
    e397: d3 fa        	out	($fa),a
    e399: 3e 07        	ld	a,$7
    e39b: d3 fa        	out	($fa),a
; DEFPORT(dma_clbp,     PORT_DMA_CLBP)
    e39d: af           	xor	a
    e39e: d3 fc        	out	($fc),a
; DEFPORT(dma_dsp_addr, PORT_DMA_DSP_ADDR)
    e3a0: d3 f4        	out	($f4),a
    e3a2: 3e f8        	ld	a,$f8
    e3a4: d3 f4        	out	($f4),a
; DEFPORT(dma_dsp_wc,   PORT_DMA_DSP_WC)
    e3a6: 3e cf        	ld	a,$cf
    e3a8: d3 f5        	out	($f5),a
    e3aa: 3e 07        	ld	a,$7
    e3ac: d3 f5        	out	($f5),a
; DEFPORT(dma_atr_wc,   PORT_DMA_ATR_WC)
    e3ae: af           	xor	a
    e3af: d3 f7        	out	($f7),a
    e3b1: d3 f7        	out	($f7),a
; DEFPORT(dma_smsk,     PORT_DMA_SMSK)
    e3b3: 3e 02        	ld	a,$2
    e3b5: d3 fa        	out	($fa),a
    e3b7: 3e 03        	ld	a,$3
    e3b9: d3 fa        	out	($fa),a
;     if (cur_dirty) {
    e3bb: 3a 04 ef     	ld	a,($ef04)               ; 0xef04 <_cur_dirty>
    e3be: b7           	or	a
    e3bf: 28 12        	jr	z,$e3d3
;         cur_dirty = 0;
    e3c1: af           	xor	a
    e3c2: 32 04 ef     	ld	($ef04),a               ; 0xef04 <_cur_dirty>
; DEFPORT(crt_cmd,      PORT_CRT_CMD)
    e3c5: 3e 80        	ld	a,$80
    e3c7: d3 01        	out	($1),a
;         port_out(crt_param, curx);     /* X position */
    e3c9: 3a d1 ff     	ld	a,($ffd1)               ; 0xffd1 <__sfrend_sec_rw+0xc1a>
; DEFPORT(crt_param,    PORT_CRT_PARAM)
    e3cc: d3 00        	out	($0),a
;         port_out(crt_param, cursy);    /* Y position */
    e3ce: 3a d4 ff     	ld	a,($ffd4)               ; 0xffd4 <__sfrend_sec_rw+0xc1d>
; DEFPORT(crt_param,    PORT_CRT_PARAM)
    e3d1: d3 00        	out	($0),a
; DEFPORT(ctc2,         PORT_CTC2)
    e3d3: 3e d7        	ld	a,$d7
    e3d5: d3 0e        	out	($e),a
    e3d7: 3e 01        	ld	a,$1
    e3d9: d3 0e        	out	($e),a
;     rtc0++;
    e3db: 2a fc ff     	ld	hl,($fffc)              ; 0xfffc <__sfrend_sec_rw+0xc45>
    e3de: 23           	inc	hl
    e3df: 22 fc ff     	ld	($fffc),hl              ; 0xfffc <__sfrend_sec_rw+0xc45>
;     if (rtc0 == 0)
    e3e2: 2a fc ff     	ld	hl,($fffc)              ; 0xfffc <__sfrend_sec_rw+0xc45>
    e3e5: 7d           	ld	a,l
    e3e6: b4           	or	h
    e3e7: 20 07        	jr	nz,$e3f0
;         rtc2++;
    e3e9: 2a fe ff     	ld	hl,($fffe)              ; 0xfffe <__sfrend_sec_rw+0xc47>
    e3ec: 23           	inc	hl
    e3ed: 22 fe ff     	ld	($fffe),hl              ; 0xfffe <__sfrend_sec_rw+0xc47>
;     if (timer1 != 0) {
    e3f0: 2a df ff     	ld	hl,($ffdf)              ; 0xffdf <__sfrend_sec_rw+0xc28>
    e3f3: 7d           	ld	a,l
    e3f4: b4           	or	h
    e3f5: 28 17        	jr	z,$e40e
;         timer1--;
    e3f7: 2a df ff     	ld	hl,($ffdf)              ; 0xffdf <__sfrend_sec_rw+0xc28>
    e3fa: 2b           	dec	hl
    e3fb: 22 df ff     	ld	($ffdf),hl              ; 0xffdf <__sfrend_sec_rw+0xc28>
;         if (timer1 == 0) {
    e3fe: 2a df ff     	ld	hl,($ffdf)              ; 0xffdf <__sfrend_sec_rw+0xc28>
    e401: 7d           	ld	a,l
    e402: b4           	or	h
    e403: 20 09        	jr	nz,$e40e
;             ((void (*)(void))warmjp)();
    e405: 2a e5 ff     	ld	hl,($ffe5)              ; 0xffe5 <__sfrend_sec_rw+0xc2e>
    e408: e5           	push	hl
    e409: fd e1        	pop	iy
    e40b: cd 13 eb     	call	$eb13
;     if (timer2 != 0) {
    e40e: 2a e1 ff     	ld	hl,($ffe1)              ; 0xffe1 <__sfrend_sec_rw+0xc2a>
    e411: 7d           	ld	a,l
    e412: b4           	or	h
    e413: 28 16        	jr	z,$e42b
;         timer2--;
    e415: 2a e1 ff     	ld	hl,($ffe1)              ; 0xffe1 <__sfrend_sec_rw+0xc2a>
    e418: 2b           	dec	hl
    e419: 22 e1 ff     	ld	($ffe1),hl              ; 0xffe1 <__sfrend_sec_rw+0xc2a>
;         if (timer2 == 0)
    e41c: 2a e1 ff     	ld	hl,($ffe1)              ; 0xffe1 <__sfrend_sec_rw+0xc2a>
    e41f: 7d           	ld	a,l
    e420: b4           	or	h
    e421: 20 08        	jr	nz,$e42b
; DEFPORT(sw1,          PORT_SW1)
    e423: db 14        	in	a,($14)
;     if (!(port_in(sw1) & 0b10000000))    /* maxi: no motor control */
    e425: 07           	rlca
    e426: 30 03        	jr	nc,$e42b
; DEFPORT(sw1,          PORT_SW1)
    e428: af           	xor	a
    e429: d3 14        	out	($14),a
;     if (delay_ticks != 0)
    e42b: 2a e3 ff     	ld	hl,($ffe3)              ; 0xffe3 <__sfrend_sec_rw+0xc2c>
    e42e: 7d           	ld	a,l
    e42f: b4           	or	h
    e430: c8           	ret	z
;         delay_ticks--;
    e431: 2a e3 ff     	ld	hl,($ffe3)              ; 0xffe3 <__sfrend_sec_rw+0xc2c>
    e434: 2b           	dec	hl
    e435: 22 e3 ff     	ld	($ffe3),hl              ; 0xffe3 <__sfrend_sec_rw+0xc2c>
; }
    e438: c9           	ret

0000e439 <_isr_pio_kbd>:
; {
    e439: 21 b6 ec     	ld	hl,$ecb6
; DEFPORT(pio_a_data,   PORT_PIO_A_DATA)
    e43c: db 10        	in	a,($10)
    e43e: 57           	ld	d,a
;         new_head = (kbhead + 1) & KBMASK;
    e43f: 3a b5 ec     	ld	a,($ecb5)               ; 0xecb5 <_wb>
    e442: 3c           	inc	a
    e443: e6 0f        	and	$f
;         if (new_head != kbtail) {
    e445: be           	cp	(hl)
    e446: c8           	ret	z
    e447: 5f           	ld	e,a
;             kbbuf[kbhead] = key;
    e448: 3a b5 ec     	ld	a,($ecb5)               ; 0xecb5 <_wb>
    e44b: 4f           	ld	c,a
    e44c: 06 00        	ld	b,$0
    e44e: 21 05 ef     	ld	hl,$ef05
    e451: 09           	add	hl,bc
    e452: 72           	ld	(hl),d
;             kbhead = new_head;
    e453: 7b           	ld	a,e
    e454: 32 b5 ec     	ld	($ecb5),a               ; 0xecb5 <_wb>
;             kbstat = 0xFF;
    e457: 3e ff        	ld	a,$ff
    e459: 32 b7 ec     	ld	($ecb7),a               ; 0xecb7 <_wb+0x2>
; }
    e45c: c9           	ret

0000e45d <_isr_floppy>:
;         fdc_irq_fired = 0xFF;
    e45d: 3e ff        	ld	a,$ff
    e45f: 32 15 ef     	ld	($ef15),a               ; 0xef15 <_fdc_irq_fired>
; DEFPORT(fdc_status,   PORT_FDC_STATUS)
    e462: db 04        	in	a,($4)
;         if (port_in(fdc_status) & FDC_MSR_CB)     /* CB set: still in result phase */
    e464: e6 10        	and	$10
    e466: 20 03        	jr	nz,$e46b
;             fdc_sense_int();
    e468: c3 8b e4     	jp	$e48b
    e46b: 16 07        	ld	d,$7
    e46d: 7a           	ld	a,d
    e46e: 32 a9 f3     	ld	($f3a9),a               ; 0xf3a9 <__sfrend_bios_linsel_body>
    e471: 11 68 f0     	ld	de,$f068
;         *p++ = fdc_read();
    e474: d5           	push	de
    e475: cd 00 ea     	call	$ea00
    e478: d1           	pop	de
;         *p++ = fdc_read();
    e479: 12           	ld	(de),a
; DEFPORT(fdc_status,   PORT_FDC_STATUS)
    e47a: db 04        	in	a,($4)
;         if (!(port_in(fdc_status) & FDC_MSR_CB))  /* CB clear: no more result bytes */
    e47c: e6 10        	and	$10
    e47e: c8           	ret	z
;         *p++ = fdc_read();
    e47f: 13           	inc	de
;     } while (--n);
    e480: 3a a9 f3     	ld	a,($f3a9)               ; 0xf3a9 <__sfrend_bios_linsel_body>
    e483: 3d           	dec	a
    e484: 32 a9 f3     	ld	($f3a9),a               ; 0xf3a9 <__sfrend_bios_linsel_body>
;     } while (--n);
    e487: b7           	or	a
    e488: 20 ea        	jr	nz,$e474
; }
    e48a: c9           	ret

0000e48b <_fdc_sense_int>:
;     fdc_write(0x08);            /* SENSE INTERRUPT STATUS */
    e48b: 3e 08        	ld	a,$8
    e48d: cd 71 da     	call	$da71
;     fdc_result.st0 = fdc_read();
    e490: cd 00 ea     	call	$ea00
    e493: 32 68 f0     	ld	($f068),a               ; 0xf068 <_fdc_result>
;     if ((fdc_result.st0 & FDC_ST0_INTERRUPT_CODE) != FDC_ST0_IC_INVALID_CMD)
    e496: ee 80        	xor	$80
    e498: fe 40        	cp	$40
    e49a: d8           	ret	c
;         fdc_result.st1 = fdc_read();
    e49b: cd 00 ea     	call	$ea00
    e49e: 32 69 f0     	ld	($f069),a               ; 0xf069 <_fdc_result+0x1>
; }
    e4a1: c9           	ret

0000e4a2 <_isr_dummy>:
; void isr_dummy(void) __interrupt(0) {}
    e4a2: fb           	ei
    e4a3: ed 4d        	reti

0000e4a5 <_isr_hd>:
; void isr_hd(void) __interrupt(4) {}
    e4a5: fb           	ei
    e4a6: ed 4d        	reti

0000e4a8 <_isr_sio_b_tx>:
; {
    e4a8: f5           	push	af
; DEFPORT(sio_b_ctrl,   PORT_SIO_B_CTRL)
    e4a9: 3e 28        	ld	a,$28
    e4ab: d3 0b        	out	($b),a
;     sio_b_tx_ready = 0xFF;              /* printer ready */
    e4ad: 3e ff        	ld	a,$ff
    e4af: 32 b2 ec     	ld	($ecb2),a               ; 0xecb2 <_sio_b_tx_ready>
; }
    e4b2: f1           	pop	af
    e4b3: fb           	ei
    e4b4: ed 4d        	reti

0000e4b6 <_isr_sio_b_ext>:
; {
    e4b6: f5           	push	af
; DEFPORT(sio_b_ctrl,   PORT_SIO_B_CTRL)
    e4b7: db 0b        	in	a,($b)
;     rr0_b = port_in(sio_b_ctrl);  /* read RR0 */
    e4b9: 32 02 ef     	ld	($ef02),a               ; 0xef02 <_rr0_b>
; DEFPORT(sio_b_ctrl,   PORT_SIO_B_CTRL)
    e4bc: 3e 10        	ld	a,$10
    e4be: d3 0b        	out	($b),a
; }
    e4c0: f1           	pop	af
    e4c1: fb           	ei
    e4c2: ed 4d        	reti

0000e4c4 <_isr_sio_b_rx>:
; {
    e4c4: f5           	push	af
    e4c5: c5           	push	bc
    e4c6: d5           	push	de
    e4c7: e5           	push	hl
; DEFPORT(sio_b_data,   PORT_SIO_B_DATA)
    e4c8: db 09        	in	a,($9)
    e4ca: 57           	ld	d,a
;     new_head = (rxhead_b + 1) & RXMASK;
    e4cb: 3a ba ec     	ld	a,($ecba)               ; 0xecba <_wb+0x5>
    e4ce: 3c           	inc	a
;     if (new_head == rxtail_b)
    e4cf: 21 bb ec     	ld	hl,$ecbb
    e4d2: be           	cp	(hl)
    e4d3: 28 18        	jr	z,$e4ed
    e4d5: 5f           	ld	e,a
;     rxbuf_b[rxhead_b] = ch;
    e4d6: 3a ba ec     	ld	a,($ecba)               ; 0xecba <_wb+0x5>
    e4d9: 4f           	ld	c,a
    e4da: 06 00        	ld	b,$0
    e4dc: 21 c7 ed     	ld	hl,$edc7
    e4df: 09           	add	hl,bc
    e4e0: 72           	ld	(hl),d
;     rxhead_b = new_head;
    e4e1: 7b           	ld	a,e
    e4e2: 32 ba ec     	ld	($ecba),a               ; 0xecba <_wb+0x5>
;     used = (new_head - rxtail_b) & RXMASK;
    e4e5: 21 bb ec     	ld	hl,$ecbb
    e4e8: 96           	sub	(hl)
;     if (used < RXTHHI)
    e4e9: fe f8        	cp	$f8
    e4eb: 38 0b        	jr	c,$e4f8
; DEFPORT(sio_b_ctrl,   PORT_SIO_B_CTRL)
    e4ed: 3e 05        	ld	a,$5
    e4ef: d3 0b        	out	($b),a
;     port_out(sio_b_ctrl, wr5b + 0x88);  /* DTR=1, TX enable, RTS=0 */
    e4f1: 3a 35 da     	ld	a,($da35)               ; 0xda35 <_bios_jump_vector_table+0x35>
    e4f4: c6 88        	add	a,$88
; DEFPORT(sio_b_ctrl,   PORT_SIO_B_CTRL)
    e4f6: d3 0b        	out	($b),a
; }
    e4f8: e1           	pop	hl
    e4f9: d1           	pop	de
    e4fa: c1           	pop	bc
    e4fb: f1           	pop	af
    e4fc: fb           	ei
    e4fd: ed 4d        	reti

0000e4ff <_isr_sio_b_spec>:
; {
    e4ff: f5           	push	af
; DEFPORT(sio_b_ctrl,   PORT_SIO_B_CTRL)
    e500: 3e 01        	ld	a,$1
    e502: d3 0b        	out	($b),a
    e504: db 0b        	in	a,($b)
;     rr1_b = port_in(sio_b_ctrl);  /* read RR1 */
    e506: 32 16 ef     	ld	($ef16),a               ; 0xef16 <_rr1_b>
; DEFPORT(sio_b_ctrl,   PORT_SIO_B_CTRL)
    e509: 3e 30        	ld	a,$30
    e50b: d3 0b        	out	($b),a
;     rxhead_b = 0;               /* flush ring buffer on error */
    e50d: af           	xor	a
    e50e: 32 ba ec     	ld	($ecba),a               ; 0xecba <_wb+0x5>
;     rxtail_b = 0;
    e511: 32 bb ec     	ld	($ecbb),a               ; 0xecbb <_wb+0x6>
; }
    e514: f1           	pop	af
    e515: fb           	ei
    e516: ed 4d        	reti

0000e518 <_isr_sio_a_tx>:
; {
    e518: f5           	push	af
; DEFPORT(sio_a_ctrl,   PORT_SIO_A_CTRL)
    e519: 3e 28        	ld	a,$28
    e51b: d3 0a        	out	($a),a
;     sio_a_tx_ready = 0xFF;              /* punch ready */
    e51d: 3e ff        	ld	a,$ff
    e51f: 32 b1 ec     	ld	($ecb1),a               ; 0xecb1 <_sio_a_tx_ready>
; }
    e522: f1           	pop	af
    e523: fb           	ei
    e524: ed 4d        	reti

0000e526 <_isr_sio_a_ext>:
; {
    e526: f5           	push	af
; DEFPORT(sio_a_ctrl,   PORT_SIO_A_CTRL)
    e527: db 0a        	in	a,($a)
;     rr0_a = port_in(sio_a_ctrl);  /* read RR0 */
    e529: 32 03 ef     	ld	($ef03),a               ; 0xef03 <_rr0_a>
; DEFPORT(sio_a_ctrl,   PORT_SIO_A_CTRL)
    e52c: 3e 10        	ld	a,$10
    e52e: d3 0a        	out	($a),a
; }
    e530: f1           	pop	af
    e531: fb           	ei
    e532: ed 4d        	reti

0000e534 <_isr_sio_a_rx>:
; DEFPORT(sio_a_data,   PORT_SIO_A_DATA)
    e534: db 08        	in	a,($8)
    e536: 57           	ld	d,a
;         new_head = (rxhead_a + 1) & RXMASK;
    e537: 3a b8 ec     	ld	a,($ecb8)               ; 0xecb8 <_wb+0x3>
    e53a: 3c           	inc	a
;         if (new_head == rxtail_a)
    e53b: 21 b9 ec     	ld	hl,$ecb9
    e53e: be           	cp	(hl)
    e53f: 28 17        	jr	z,$e558
    e541: 5f           	ld	e,a
;         rxbuf_a[rxhead_a] = ch;
    e542: 3a b8 ec     	ld	a,($ecb8)               ; 0xecb8 <_wb+0x3>
    e545: 4f           	ld	c,a
    e546: 06 00        	ld	b,$0
    e548: 21 c7 ec     	ld	hl,$ecc7
    e54b: 09           	add	hl,bc
    e54c: 72           	ld	(hl),d
;         rxhead_a = new_head;
    e54d: 7b           	ld	a,e
    e54e: 32 b8 ec     	ld	($ecb8),a               ; 0xecb8 <_wb+0x3>
;         used = (new_head - rxtail_a) & RXMASK;
    e551: 21 b9 ec     	ld	hl,$ecb9
    e554: 96           	sub	(hl)
;         if (used < RXTHHI)
    e555: fe f8        	cp	$f8
    e557: d8           	ret	c
; DEFPORT(sio_a_ctrl,   PORT_SIO_A_CTRL)
    e558: 3e 05        	ld	a,$5
    e55a: d3 0a        	out	($a),a
;         port_out(sio_a_ctrl, wr5a + 0x88);  /* DTR=1, TX enable, RTS=0 */
    e55c: 3a 34 da     	ld	a,($da34)               ; 0xda34 <_bios_jump_vector_table+0x34>
    e55f: c6 88        	add	a,$88
; DEFPORT(sio_a_ctrl,   PORT_SIO_A_CTRL)
    e561: d3 0a        	out	($a),a
; }
    e563: c9           	ret

0000e564 <_isr_sio_a_spec>:
; {
    e564: f5           	push	af
; DEFPORT(sio_a_ctrl,   PORT_SIO_A_CTRL)
    e565: 3e 01        	ld	a,$1
    e567: d3 0a        	out	($a),a
    e569: db 0a        	in	a,($a)
;     rr1_a = port_in(sio_a_ctrl);  /* read RR1 */
    e56b: 32 17 ef     	ld	($ef17),a               ; 0xef17 <_rr1_a>
; DEFPORT(sio_a_ctrl,   PORT_SIO_A_CTRL)
    e56e: 3e 30        	ld	a,$30
    e570: d3 0a        	out	($a),a
;     rxhead_a = 0;                 /* flush ring buffer */
    e572: af           	xor	a
    e573: 32 b8 ec     	ld	($ecb8),a               ; 0xecb8 <_wb+0x3>
;     rxtail_a = 0;
    e576: 32 b9 ec     	ld	($ecb9),a               ; 0xecb9 <_wb+0x4>
; }
    e579: f1           	pop	af
    e57a: fb           	ei
    e57b: ed 4d        	reti

0000e57d <_isr_pio_par>:
; void isr_pio_par(void) __interrupt(17) {}
    e57d: fb           	ei
    e57e: ed 4d        	reti

0000e580 <_cursor_left>:
;     if (curx != COLUMN0) {
    e580: 3a d1 ff     	ld	a,($ffd1)               ; 0xffd1 <__sfrend_sec_rw+0xc1a>
    e583: 4f           	ld	c,a
    e584: b7           	or	a
    e585: 28 0a        	jr	z,$e591
;         curx--;
    e587: 3d           	dec	a
    e588: 32 d1 ff     	ld	($ffd1),a               ; 0xffd1 <__sfrend_sec_rw+0xc1a>
;     cur_dirty = 1;              /* deferred to isr_crt for speed */
    e58b: 3e 01        	ld	a,$1
    e58d: 32 04 ef     	ld	($ef04),a               ; 0xef04 <_cur_dirty>
; }
    e590: c9           	ret
;         curx = COLUMN79;
    e591: 3e 4f        	ld	a,$4f
    e593: 32 d1 ff     	ld	($ffd1),a               ; 0xffd1 <__sfrend_sec_rw+0xc1a>
;         if (cury != ROW0_OFF) {
    e596: 2a d2 ff     	ld	hl,($ffd2)              ; 0xffd2 <__sfrend_sec_rw+0xc1b>
    e599: 7d           	ld	a,l
    e59a: b4           	or	h
    e59b: 28 03        	jr	z,$e5a0
;             rowup();
    e59d: c3 4a e6     	jp	$e64a
;             cury = ROW24_OFFSET;
    e5a0: 21 80 07     	ld	hl,$780
    e5a3: 22 d2 ff     	ld	($ffd2),hl              ; 0xffd2 <__sfrend_sec_rw+0xc1b>
;             cursy = ROW24;
    e5a6: 3e 18        	ld	a,$18
    e5a8: 32 d4 ff     	ld	($ffd4),a               ; 0xffd4 <__sfrend_sec_rw+0xc1d>
    e5ab: 18 de        	jr	$e58b

0000e5ad <_cursor_right>:
;     if (curx < COLUMN79) {
    e5ad: 3a d1 ff     	ld	a,($ffd1)               ; 0xffd1 <__sfrend_sec_rw+0xc1a>
    e5b0: fe 4f        	cp	$4f
    e5b2: 30 0a        	jr	nc,$e5be
;         curx++;
    e5b4: 3c           	inc	a
    e5b5: 32 d1 ff     	ld	($ffd1),a               ; 0xffd1 <__sfrend_sec_rw+0xc1a>
;     cur_dirty = 1;              /* deferred to isr_crt for speed */
    e5b8: 3e 01        	ld	a,$1
    e5ba: 32 04 ef     	ld	($ef04),a               ; 0xef04 <_cur_dirty>
; }
    e5bd: c9           	ret
;         curx = COLUMN0;
    e5be: af           	xor	a
    e5bf: 32 d1 ff     	ld	($ffd1),a               ; 0xffd1 <__sfrend_sec_rw+0xc1a>
;         if (cury != ROW24_OFFSET) {
    e5c2: 2a d2 ff     	ld	hl,($ffd2)              ; 0xffd2 <__sfrend_sec_rw+0xc1b>
    e5c5: 7c           	ld	a,h
    e5c6: ee 07        	xor	$7
    e5c8: 57           	ld	d,a
    e5c9: 7d           	ld	a,l
    e5ca: ee 80        	xor	$80
    e5cc: b2           	or	d
    e5cd: 20 08        	jr	nz,$e5d7
;     cur_dirty = 1;              /* deferred to isr_crt for speed */
    e5cf: 3e 01        	ld	a,$1
    e5d1: 32 04 ef     	ld	($ef04),a               ; 0xef04 <_cur_dirty>
;             scroll();
    e5d4: c3 f1 e5     	jp	$e5f1
;             rowdn();
    e5d7: c3 da e5     	jp	$e5da

0000e5da <_rowdn>:
;     cury += SCRN_COLS;
    e5da: 2a d2 ff     	ld	hl,($ffd2)              ; 0xffd2 <__sfrend_sec_rw+0xc1b>
    e5dd: 11 50 00     	ld	de,$50
    e5e0: 19           	add	hl,de
    e5e1: 22 d2 ff     	ld	($ffd2),hl              ; 0xffd2 <__sfrend_sec_rw+0xc1b>
;     cursy++;
    e5e4: 3a d4 ff     	ld	a,($ffd4)               ; 0xffd4 <__sfrend_sec_rw+0xc1d>
    e5e7: 3c           	inc	a
    e5e8: 32 d4 ff     	ld	($ffd4),a               ; 0xffd4 <__sfrend_sec_rw+0xc1d>
;     cur_dirty = 1;              /* deferred to isr_crt for speed */
    e5eb: 3e 01        	ld	a,$1
    e5ed: 32 04 ef     	ld	($ef04),a               ; 0xef04 <_cur_dirty>
; }
    e5f0: c9           	ret

0000e5f1 <_scroll>:
;         __asm volatile(
    e5f1: 11 00 f8     	ld	de,$f800
    e5f4: 01 80 07     	ld	bc,$780
    e5f7: 21 50 f8     	ld	hl,$f850
    e5fa: ed a0        	ldi
    e5fc: ed a0        	ldi
    e5fe: ed a0        	ldi
    e600: ed a0        	ldi
    e602: ed a0        	ldi
    e604: ed a0        	ldi
    e606: ed a0        	ldi
    e608: ed a0        	ldi
    e60a: ed a0        	ldi
    e60c: ed a0        	ldi
    e60e: ed a0        	ldi
    e610: ed a0        	ldi
    e612: ed a0        	ldi
    e614: ed a0        	ldi
    e616: ed a0        	ldi
    e618: ed a0        	ldi
    e61a: ea fa e5     	jp	pe,$e5fa
;     memset((void *)0xFF80, 0x20, 80);
    e61d: 21 50 00     	ld	hl,$50
    e620: e5           	push	hl
    e621: 21 80 ff     	ld	hl,$ff80
    e624: 11 20 00     	ld	de,$20
    e627: cd f8 ea     	call	$eaf8
;     if (bgflg) {
    e62a: 3a 70 f0     	ld	a,($f070)               ; 0xf070 <_bgflg>
    e62d: b7           	or	a
    e62e: c8           	ret	z
;         memcpy(bgstar, bgstar + BG_ROW_BYTES, BGSTAR_SIZE - BG_ROW_BYTES);
    e62f: 21 f0 00     	ld	hl,$f0
    e632: e5           	push	hl
    e633: 21 71 f0     	ld	hl,$f071
    e636: 11 7b f0     	ld	de,$f07b
    e639: cd ec ea     	call	$eaec
;         memset(bgstar + BGSTAR_SIZE - BG_ROW_BYTES, 0, BG_ROW_BYTES);
    e63c: 21 0a 00     	ld	hl,$a
    e63f: e5           	push	hl
    e640: 21 61 f1     	ld	hl,$f161
    e643: 11 00 00     	ld	de,$0
    e646: cd f8 ea     	call	$eaf8
; }
    e649: c9           	ret

0000e64a <_rowup>:
;     cury -= SCRN_COLS;
    e64a: 2a d2 ff     	ld	hl,($ffd2)              ; 0xffd2 <__sfrend_sec_rw+0xc1b>
    e64d: 11 b0 ff     	ld	de,$ffb0
    e650: 19           	add	hl,de
    e651: 22 d2 ff     	ld	($ffd2),hl              ; 0xffd2 <__sfrend_sec_rw+0xc1b>
;     cursy--;
    e654: 3a d4 ff     	ld	a,($ffd4)               ; 0xffd4 <__sfrend_sec_rw+0xc1d>
    e657: 3d           	dec	a
    e658: 32 d4 ff     	ld	($ffd4),a               ; 0xffd4 <__sfrend_sec_rw+0xc1d>
;     cur_dirty = 1;              /* deferred to isr_crt for speed */
    e65b: 3e 01        	ld	a,$1
    e65d: 32 04 ef     	ld	($ef04),a               ; 0xef04 <_cur_dirty>
; }
    e660: c9           	ret

0000e661 <_bg_clear_from>:
;     if (!bgflg)
    e661: 3a 70 f0     	ld	a,($f070)               ; 0xf070 <_bgflg>
    e664: b7           	or	a
    e665: ca 67 e7     	jp	z,$e767
;     byteoff = (byte)(bgcl_pos >> 3);
    e668: 2a 6b f1     	ld	hl,($f16b)              ; 0xf16b <_bgcl_pos>
    e66b: 4d           	ld	c,l
    e66c: 44           	ld	b,h
    e66d: eb           	ex	de,hl
    e66e: cb 3a        	srl	d
    e670: cb 1b        	rr	e
    e672: cb 3a        	srl	d
    e674: cb 1b        	rr	e
    e676: cb 3a        	srl	d
    e678: cb 1b        	rr	e
    e67a: 6b           	ld	l,e
    e67b: 62           	ld	h,d
    e67c: 7d           	ld	a,l
    e67d: 32 b2 f3     	ld	($f3b2),a               ; 0xf3b2 <__sfrend_isr_sio_b_tx+0x6>
    e680: 32 6f f1     	ld	($f16f),a               ; 0xf16f <_bg_clear_from.byteoff>
    e683: 69           	ld	l,c
;     if (bitno) {
    e684: e5           	push	hl
    e685: 79           	ld	a,c
    e686: e6 07        	and	$7
    e688: 4f           	ld	c,a
    e689: 06 00        	ld	b,$0
;     whole = (byte)(bgcl_count >> 3);
    e68b: 2a 6d f1     	ld	hl,($f16d)              ; 0xf16d <_bgcl_count>
    e68e: 22 ae f3     	ld	($f3ae),hl              ; 0xf3ae <__sfrend_isr_sio_b_tx+0x2>
;     if (bitno) {
    e691: 28 5d        	jr	z,$e6f0
;         bgstar[byteoff] &= ~((byte)0xFF >> bitno);
    e693: e1           	pop	hl
    e694: 7d           	ld	a,l
    e695: e6 07        	and	$7
    e697: 4f           	ld	c,a
    e698: ed 43 b0 f3  	ld	($f3b0),bc              ; 0xf3b0 <__sfrend_isr_sio_b_tx+0x4>
    e69c: 21 00 ff     	ld	hl,$ff00
    e69f: ed 4b b0 f3  	ld	bc,($f3b0)              ; 0xf3b0 <__sfrend_isr_sio_b_tx+0x4>
    e6a3: 41           	ld	b,c
    e6a4: 04           	inc	b
    e6a5: 05           	dec	b
    e6a6: 28 06        	jr	z,$e6ae
    e6a8: cb 2c        	sra	h
    e6aa: cb 1d        	rr	l
    e6ac: 10 fa        	djnz	$e6a8
    e6ae: 4d           	ld	c,l
    e6af: 44           	ld	b,h
    e6b0: 2a b0 f3     	ld	hl,($f3b0)              ; 0xf3b0 <__sfrend_isr_sio_b_tx+0x4>
    e6b3: 54           	ld	d,h
    e6b4: 21 71 f0     	ld	hl,$f071
    e6b7: 19           	add	hl,de
    e6b8: 22 ac f3     	ld	($f3ac),hl              ; 0xf3ac <__sfrend_isr_sio_b_tx>
    e6bb: 79           	ld	a,c
    e6bc: 2a ac f3     	ld	hl,($f3ac)              ; 0xf3ac <__sfrend_isr_sio_b_tx>
    e6bf: a6           	and	(hl)
    e6c0: ed 5b ac f3  	ld	de,($f3ac)              ; 0xf3ac <__sfrend_isr_sio_b_tx>
    e6c4: 12           	ld	(de),a
;         byteoff++;
    e6c5: 3a b2 f3     	ld	a,($f3b2)               ; 0xf3b2 <__sfrend_isr_sio_b_tx+0x6>
    e6c8: 3c           	inc	a
    e6c9: 32 b2 f3     	ld	($f3b2),a               ; 0xf3b2 <__sfrend_isr_sio_b_tx+0x6>
    e6cc: 32 6f f1     	ld	($f16f),a               ; 0xf16f <_bg_clear_from.byteoff>
;         bgcl_count = (bgcl_count > (byte)(8 - bitno)) ? bgcl_count - (8 - bitno) : 0;
    e6cf: 21 08 00     	ld	hl,$8
    e6d2: ed 5b b0 f3  	ld	de,($f3b0)              ; 0xf3b0 <__sfrend_isr_sio_b_tx+0x4>
    e6d6: a7           	and	a
    e6d7: ed 52        	sbc	hl,de
    e6d9: eb           	ex	de,hl
    e6da: 2a ae f3     	ld	hl,($f3ae)              ; 0xf3ae <__sfrend_isr_sio_b_tx+0x2>
    e6dd: a7           	and	a
    e6de: ed 52        	sbc	hl,de
    e6e0: 9f           	sbc	a,a
    e6e1: e6 01        	and	$1
    e6e3: 11 00 00     	ld	de,$0
    e6e6: 20 01        	jr	nz,$e6e9
    e6e8: eb           	ex	de,hl
;         bgcl_count = (bgcl_count > (byte)(8 - bitno)) ? bgcl_count - (8 - bitno) : 0;
    e6e9: 6b           	ld	l,e
    e6ea: 62           	ld	h,d
    e6eb: 22 6d f1     	ld	($f16d),hl              ; 0xf16d <_bgcl_count>
    e6ee: 18 06        	jr	$e6f6
    e6f0: 33           	inc	sp
    e6f1: 33           	inc	sp
    e6f2: ed 5b ae f3  	ld	de,($f3ae)              ; 0xf3ae <__sfrend_isr_sio_b_tx+0x2>
;     whole = (byte)(bgcl_count >> 3);
    e6f6: 4b           	ld	c,e
    e6f7: 42           	ld	b,d
    e6f8: cb 38        	srl	b
    e6fa: cb 19        	rr	c
    e6fc: cb 38        	srl	b
    e6fe: cb 19        	rr	c
    e700: cb 38        	srl	b
    e702: cb 19        	rr	c
    e704: 79           	ld	a,c
    e705: 32 70 f1     	ld	($f170),a               ; 0xf170 <_bg_clear_from.whole>
;     if (whole) {
    e708: b7           	or	a
    e709: 28 2a        	jr	z,$e735
;         memset(bgstar + byteoff, 0, whole);
    e70b: 3a b2 f3     	ld	a,($f3b2)               ; 0xf3b2 <__sfrend_isr_sio_b_tx+0x6>
    e70e: 57           	ld	d,a
    e70f: 5a           	ld	e,d
    e710: 16 00        	ld	d,$0
    e712: 21 71 f0     	ld	hl,$f071
    e715: 19           	add	hl,de
    e716: eb           	ex	de,hl
    e717: 06 00        	ld	b,$0
    e719: 69           	ld	l,c
    e71a: 60           	ld	h,b
    e71b: e5           	push	hl
    e71c: eb           	ex	de,hl
    e71d: 11 00 00     	ld	de,$0
    e720: cd f8 ea     	call	$eaf8
;         byteoff += whole;
    e723: 3a 70 f1     	ld	a,($f170)               ; 0xf170 <_bg_clear_from.whole>
    e726: 57           	ld	d,a
    e727: 3a 6f f1     	ld	a,($f16f)               ; 0xf16f <_bg_clear_from.byteoff>
    e72a: 82           	add	a,d
    e72b: 4f           	ld	c,a
    e72c: 32 6f f1     	ld	($f16f),a               ; 0xf16f <_bg_clear_from.byteoff>
;     tail = (byte)(bgcl_count & 7);
    e72f: 2a 6d f1     	ld	hl,($f16d)              ; 0xf16d <_bgcl_count>
    e732: eb           	ex	de,hl
    e733: 18 04        	jr	$e739
    e735: 3a b2 f3     	ld	a,($f3b2)               ; 0xf3b2 <__sfrend_isr_sio_b_tx+0x6>
    e738: 4f           	ld	c,a
;     if (tail) {
    e739: 7b           	ld	a,e
    e73a: e6 07        	and	$7
    e73c: 5f           	ld	e,a
    e73d: 16 00        	ld	d,$0
    e73f: c8           	ret	z
;         bgstar[byteoff] &= ~((byte)0xFF << (byte)(8 - tail));
    e740: 21 08 00     	ld	hl,$8
    e743: a7           	and	a
    e744: ed 52        	sbc	hl,de
    e746: 45           	ld	b,l
    e747: 21 ff 00     	ld	hl,$ff
    e74a: 04           	inc	b
    e74b: 05           	dec	b
    e74c: 28 03        	jr	z,$e751
    e74e: 29           	add	hl,hl
    e74f: 10 fd        	djnz	$e74e
    e751: eb           	ex	de,hl
    e752: 06 00        	ld	b,$0
    e754: 21 71 f0     	ld	hl,$f071
    e757: 09           	add	hl,bc
    e758: 22 b2 f3     	ld	($f3b2),hl              ; 0xf3b2 <__sfrend_isr_sio_b_tx+0x6>
    e75b: eb           	ex	de,hl
    e75c: 7d           	ld	a,l
    e75d: 2f           	cpl
    e75e: 2a b2 f3     	ld	hl,($f3b2)              ; 0xf3b2 <__sfrend_isr_sio_b_tx+0x6>
    e761: a6           	and	(hl)
    e762: ed 5b b2 f3  	ld	de,($f3b2)              ; 0xf3b2 <__sfrend_isr_sio_b_tx+0x6>
    e766: 12           	ld	(de),a
; }
    e767: c9           	ret

0000e768 <_chktrk>:
;     sec = (byte)hostbuf_sector;
    e768: 3a 77 f1     	ld	a,($f177)               ; 0xf177 <_hostbuf_sector>
    e76b: 5f           	ld	e,a
;     ev = track0_sectors_per_side;
    e76c: 3a d3 ee     	ld	a,($eed3)               ; 0xeed3 <_track0_sectors_per_side>
    e76f: 67           	ld	h,a
;     fdc_unit_head = hostbuf_disk;
    e770: 3a 78 f1     	ld	a,($f178)               ; 0xf178 <_hostbuf_disk>
    e773: 57           	ld	d,a
    e774: 32 c0 ec     	ld	($ecc0),a               ; 0xecc0 <_fdc_unit_head>
;     if (sec >= ev) {
    e777: 7b           	ld	a,e
    e778: bc           	cp	h
    e779: 38 09        	jr	c,$e784
;         fdc_unit_head |= 4;
    e77b: 7a           	ld	a,d
    e77c: f6 04        	or	$4
    e77e: 32 c0 ec     	ld	($ecc0),a               ; 0xecc0 <_fdc_unit_head>
;         sec -= ev;
    e781: 7b           	ld	a,e
    e782: 94           	sub	h
    e783: 5f           	ld	e,a
;     tp = sector_xlate;
    e784: 2a db ee     	ld	hl,($eedb)              ; 0xeedb <_sector_xlate>
;     fdc_sector = tp[sec];
    e787: 4b           	ld	c,e
    e788: 06 00        	ld	b,$0
    e78a: 09           	add	hl,bc
    e78b: 7e           	ld	a,(hl)
    e78c: 32 79 f1     	ld	($f179),a               ; 0xf179 <_fdc_sector>
;     fdc_track = (byte)hostbuf_track;
    e78f: 2a 7a f1     	ld	hl,($f17a)              ; 0xf17a <_hostbuf_track>
    e792: 4d           	ld	c,l
    e793: 44           	ld	b,h
    e794: 7d           	ld	a,l
    e795: 32 7c f1     	ld	($f17c),a               ; 0xf17c <_fdc_track>
;     fdc_dma_addr = &hstbuf[0];
    e798: 21 7d f1     	ld	hl,$f17d
    e79b: 22 7d f3     	ld	($f37d),hl              ; 0xf37d <_fdc_dma_addr>
;     if (hostbuf_disk == last_seek_disk && hostbuf_track == last_seek_track)
    e79e: 21 c8 ee     	ld	hl,$eec8
    e7a1: 7a           	ld	a,d
    e7a2: be           	cp	(hl)
    e7a3: 20 07        	jr	nz,$e7ac
    e7a5: 2a c9 ee     	ld	hl,($eec9)              ; 0xeec9 <_last_seek_track>
    e7a8: a7           	and	a
    e7a9: ed 42        	sbc	hl,bc
    e7ab: c8           	ret	z
;     last_seek_disk = hostbuf_disk;
    e7ac: 32 c8 ee     	ld	($eec8),a               ; 0xeec8 <_last_seek_disk>
;     last_seek_track = hostbuf_track;
    e7af: 69           	ld	l,c
    e7b0: 60           	ld	h,b
    e7b1: 22 c9 ee     	ld	($eec9),hl              ; 0xeec9 <_last_seek_track>
; static inline void intrinsic_di(void)   { __asm__ volatile("di"); }
    e7b4: f3           	di
;     fdc_irq_fired = 0;
    e7b5: af           	xor	a
    e7b6: 32 15 ef     	ld	($ef15),a               ; 0xef15 <_fdc_irq_fired>
; static inline void intrinsic_ei(void)   { __asm__ volatile("ei"); }
    e7b9: fb           	ei
;     fdc_seek();
    e7ba: cd e7 e8     	call	$e8e7
;     fdc_irq_wait_rearm();
    e7bd: cd 7e da     	call	$da7e
;     if (fdc_result.st0 == (FDC_ST0_SEEK_END | (fdc_unit_head & 3)))
    e7c0: 3a c0 ec     	ld	a,($ecc0)               ; 0xecc0 <_fdc_unit_head>
    e7c3: e6 03        	and	$3
    e7c5: f6 20        	or	$20
    e7c7: 21 68 f0     	ld	hl,$f068
    e7ca: be           	cp	(hl)
    e7cb: 20 01        	jr	nz,$e7ce
; }
    e7cd: c9           	ret
; static inline void intrinsic_di(void)   { __asm__ volatile("di"); }
    e7ce: f3           	di
;     fdc_irq_fired = 0;
    e7cf: af           	xor	a
    e7d0: 32 15 ef     	ld	($ef15),a               ; 0xef15 <_fdc_irq_fired>
; static inline void intrinsic_ei(void)   { __asm__ volatile("ei"); }
    e7d3: fb           	ei
;     fdc_recalibrate();
    e7d4: cd 29 e2     	call	$e229
;     fdc_irq_wait_rearm();
    e7d7: cd 7e da     	call	$da7e
;     fdc_sense_int();
    e7da: cd 8b e4     	call	$e48b
; static inline void intrinsic_di(void)   { __asm__ volatile("di"); }
    e7dd: f3           	di
;     fdc_irq_fired = 0;
    e7de: af           	xor	a
    e7df: 32 15 ef     	ld	($ef15),a               ; 0xef15 <_fdc_irq_fired>
; static inline void intrinsic_ei(void)   { __asm__ volatile("ei"); }
    e7e2: fb           	ei
;     fdc_seek();
    e7e3: cd e7 e8     	call	$e8e7
;     fdc_irq_wait_rearm();
    e7e6: cd 7e da     	call	$da7e
;     fdc_sense_int();
    e7e9: c3 8b e4     	jp	$e48b

0000e7ec <_sec_rw>:
;     s_cmd = cmd;
    e7ec: 32 7f f3     	ld	($f37f),a               ; 0xf37f <_sec_rw.s_cmd>
;     s_dma_dir = dma_dir;
    e7ef: 7d           	ld	a,l
    e7f0: 32 80 f3     	ld	($f380),a               ; 0xf380 <_sec_rw.s_dma_dir>
    e7f3: 3e 0a        	ld	a,$a
;     for (repet = 10; repet != 0; repet--) {
    e7f5: 32 81 f3     	ld	($f381),a               ; 0xf381 <_sec_rw.repet>
    e7f8: b7           	or	a
    e7f9: ca dd e8     	jp	z,$e8dd
;         fdstar();
    e7fc: cd 06 e2     	call	$e206
; static inline void intrinsic_di(void)   { __asm__ volatile("di"); }
    e7ff: f3           	di
;     fdc_irq_fired = 0;
    e800: af           	xor	a
    e801: 32 15 ef     	ld	($ef15),a               ; 0xef15 <_fdc_irq_fired>
; static inline void intrinsic_ei(void)   { __asm__ volatile("ei"); }
    e804: fb           	ei
;         dma_count = current_format->dma_count;
    e805: 2a d1 ee     	ld	hl,($eed1)              ; 0xeed1 <_current_format>
    e808: 23           	inc	hl
    e809: 5e           	ld	e,(hl)
    e80a: 23           	inc	hl
    e80b: 56           	ld	d,(hl)
    e80c: eb           	ex	de,hl
    e80d: 22 82 f3     	ld	($f382),hl              ; 0xf382 <_dma_count>
;         dma_write = s_dma_dir;
    e810: 3a 80 f3     	ld	a,($f380)               ; 0xf380 <_sec_rw.s_dma_dir>
    e813: 32 84 f3     	ld	($f384),a               ; 0xf384 <_dma_write>
; static inline void intrinsic_di(void)   { __asm__ volatile("di"); }
    e816: f3           	di
; DEFPORT(dma_smsk,     PORT_DMA_SMSK)
    e817: 3e 05        	ld	a,$5
    e819: d3 fa        	out	($fa),a
;     port_out(dma_mode, dma_write
    e81b: 3a 84 f3     	ld	a,($f384)               ; 0xf384 <_dma_write>
    e81e: b7           	or	a
    e81f: 28 04        	jr	z,$e825
    e821: 3e 49        	ld	a,$49
    e823: 18 02        	jr	$e827
    e825: 3e 45        	ld	a,$45
; DEFPORT(dma_mode,     PORT_DMA_MODE)
    e827: d3 fb        	out	($fb),a
; DEFPORT(dma_clbp,     PORT_DMA_CLBP)
    e829: af           	xor	a
    e82a: d3 fc        	out	($fc),a
;     hal_dma_flp_addr((word)fdc_dma_addr);
    e82c: 2a 7d f3     	ld	hl,($f37d)              ; 0xf37d <_fdc_dma_addr>
    e82f: 7d           	ld	a,l
; DEFPORT(dma_flp_addr, PORT_DMA_FLP_ADDR)
    e830: d3 f2        	out	($f2),a
;     hal_dma_flp_addr((word)fdc_dma_addr);
    e832: 2a 7d f3     	ld	hl,($f37d)              ; 0xf37d <_fdc_dma_addr>
; DEFPORT(dma_flp_addr, PORT_DMA_FLP_ADDR)
    e835: 7c           	ld	a,h
    e836: d3 f2        	out	($f2),a
;     hal_dma_flp_wc(dma_count);
    e838: 2a 82 f3     	ld	hl,($f382)              ; 0xf382 <_dma_count>
    e83b: 7d           	ld	a,l
; DEFPORT(dma_flp_wc,   PORT_DMA_FLP_WC)
    e83c: d3 f3        	out	($f3),a
;     hal_dma_flp_wc(dma_count);
    e83e: 2a 82 f3     	ld	hl,($f382)              ; 0xf382 <_dma_count>
; DEFPORT(dma_flp_wc,   PORT_DMA_FLP_WC)
    e841: 7c           	ld	a,h
    e842: d3 f3        	out	($f3),a
; DEFPORT(dma_smsk,     PORT_DMA_SMSK)
    e844: 3e 01        	ld	a,$1
    e846: d3 fa        	out	($fa),a
; static inline void intrinsic_ei(void)   { __asm__ volatile("ei"); }
    e848: fb           	ei
;         fdc_general_cmd(s_cmd, &current_format->mf);
    e849: 3a 7f f3     	ld	a,($f37f)               ; 0xf37f <_sec_rw.s_cmd>
    e84c: 57           	ld	d,a
    e84d: 2a d1 ee     	ld	hl,($eed1)              ; 0xeed1 <_current_format>
    e850: e5           	push	hl
    e851: 4d           	ld	c,l
    e852: 44           	ld	b,h
    e853: 03           	inc	bc
    e854: 03           	inc	bc
    e855: 03           	inc	bc
; static inline void intrinsic_di(void)   { __asm__ volatile("di"); }
    e856: f3           	di
;     fdc_write(cmd + fdfp[0]);       /* command + MF flag */
    e857: 0a           	ld	a,(bc)
    e858: 82           	add	a,d
    e859: cd 71 da     	call	$da71
;     fdc_write(fdc_unit_head);              /* drive + head */
    e85c: 3a c0 ec     	ld	a,($ecc0)               ; 0xecc0 <_fdc_unit_head>
    e85f: 32 b4 f3     	ld	($f3b4),a               ; 0xf3b4 <__sfrend_bg_clear_from>
    e862: cd 71 da     	call	$da71
;     fdc_write(fdc_track);              /* cylinder */
    e865: 3a 7c f1     	ld	a,($f17c)               ; 0xf17c <_fdc_track>
    e868: cd 71 da     	call	$da71
;     fdc_write((fdc_unit_head >> 2) & 3);   /* head number */
    e86b: 3a b4 f3     	ld	a,($f3b4)               ; 0xf3b4 <__sfrend_bg_clear_from>
    e86e: 0f           	rrca
    e86f: 0f           	rrca
    e870: e6 03        	and	$3
    e872: cd 71 da     	call	$da71
;     fdc_write(fdc_sector);              /* sector */
    e875: 3a 79 f1     	ld	a,($f179)               ; 0xf179 <_fdc_sector>
    e878: cd 71 da     	call	$da71
;     fdc_write(fdfp[1]);            /* N (sector size code) */
    e87b: e1           	pop	hl
    e87c: e5           	push	hl
    e87d: 11 04 00     	ld	de,$4
    e880: 19           	add	hl,de
    e881: 7e           	ld	a,(hl)
    e882: cd 71 da     	call	$da71
;     fdc_write(fdfp[2]);            /* EOT (final sector) */
    e885: e1           	pop	hl
    e886: e5           	push	hl
    e887: 11 05 00     	ld	de,$5
    e88a: 19           	add	hl,de
    e88b: 7e           	ld	a,(hl)
    e88c: cd 71 da     	call	$da71
;     fdc_write(fdfp[3]);            /* gap length */
    e88f: e1           	pop	hl
    e890: 11 06 00     	ld	de,$6
    e893: 19           	add	hl,de
    e894: 7e           	ld	a,(hl)
    e895: cd 71 da     	call	$da71
;     fdc_write(fdc_data_length);               /* data length */
    e898: 3a dd ee     	ld	a,($eedd)               ; 0xeedd <_fdc_data_length>
    e89b: cd 71 da     	call	$da71
; static inline void intrinsic_ei(void)   { __asm__ volatile("ei"); }
    e89e: fb           	ei
;         fdc_irq_wait();
    e89f: cd 88 da     	call	$da88
;         if (!(fdc_result.st0 & FDC_ST0_ANY_ERROR))
    e8a2: 3a 68 f0     	ld	a,($f068)               ; 0xf068 <_fdc_result>
    e8a5: fe 08        	cp	$8
    e8a7: d8           	ret	c
;         if (fdc_result.st0 & FDC_ST0_NOT_READY) /* drive not ready — retry won't help */
    e8a8: 3a 68 f0     	ld	a,($f068)               ; 0xf068 <_fdc_result>
    e8ab: e6 08        	and	$8
    e8ad: 20 2e        	jr	nz,$e8dd
;         if (repet == 6) {               /* halfway (5 failures): recalibrate before retry */
    e8af: 3a 81 f3     	ld	a,($f381)               ; 0xf381 <_sec_rw.repet>
    e8b2: 4f           	ld	c,a
    e8b3: fe 06        	cp	$6
    e8b5: 20 22        	jr	nz,$e8d9
; static inline void intrinsic_di(void)   { __asm__ volatile("di"); }
    e8b7: f3           	di
;     fdc_irq_fired = 0;
    e8b8: af           	xor	a
    e8b9: 32 15 ef     	ld	($ef15),a               ; 0xef15 <_fdc_irq_fired>
; static inline void intrinsic_ei(void)   { __asm__ volatile("ei"); }
    e8bc: fb           	ei
;             fdc_recalibrate();
    e8bd: cd 29 e2     	call	$e229
;             fdc_irq_wait_rearm();
    e8c0: cd 7e da     	call	$da7e
;             fdc_sense_int();
    e8c3: cd 8b e4     	call	$e48b
; static inline void intrinsic_di(void)   { __asm__ volatile("di"); }
    e8c6: f3           	di
;     fdc_irq_fired = 0;
    e8c7: af           	xor	a
    e8c8: 32 15 ef     	ld	($ef15),a               ; 0xef15 <_fdc_irq_fired>
; static inline void intrinsic_ei(void)   { __asm__ volatile("ei"); }
    e8cb: fb           	ei
;             fdc_seek();
    e8cc: cd e7 e8     	call	$e8e7
;             fdc_irq_wait_rearm();
    e8cf: cd 7e da     	call	$da7e
;             fdc_sense_int();
    e8d2: cd 8b e4     	call	$e48b
;     for (repet = 10; repet != 0; repet--) {
    e8d5: 3a 81 f3     	ld	a,($f381)               ; 0xf381 <_sec_rw.repet>
    e8d8: 4f           	ld	c,a
    e8d9: 3d           	dec	a
    e8da: c3 f5 e7     	jp	$e7f5
;     hostbuf_valid = 0;
    e8dd: af           	xor	a
    e8de: 32 bc ec     	ld	($ecbc),a               ; 0xecbc <_wb+0x7>
;     disk_error = 1;
    e8e1: 3e 01        	ld	a,$1
    e8e3: 32 be ec     	ld	($ecbe),a               ; 0xecbe <_wb+0x9>
; }
    e8e6: c9           	ret

0000e8e7 <_fdc_seek>:
;     fdc_write(0x0F);            /* SEEK */
    e8e7: 3e 0f        	ld	a,$f
    e8e9: cd 71 da     	call	$da71
;     fdc_write(fdc_unit_head & 3);      /* drive + head */
    e8ec: 3a c0 ec     	ld	a,($ecc0)               ; 0xecc0 <_fdc_unit_head>
    e8ef: e6 03        	and	$3
    e8f1: cd 71 da     	call	$da71
;     fdc_write(fdc_track);          /* cylinder */
    e8f4: 3a 7c f1     	ld	a,($f17c)               ; 0xf17c <_fdc_track>
    e8f7: c3 71 da     	jp	$da71

0000e8fa <_rwoper>:
;     cpm_sector_as_host = (byte)(cpm_sector >> (byte)(deblock_shift - 1));
    e8fa: 2a c5 ec     	ld	hl,($ecc5)              ; 0xecc5 <_cpm_sector>
    e8fd: 3a da ee     	ld	a,($eeda)               ; 0xeeda <_deblock_shift>
    e900: 3d           	dec	a
    e901: 47           	ld	b,a
    e902: 04           	inc	b
    e903: 05           	dec	b
    e904: 28 06        	jr	z,$e90c
    e906: cb 3c        	srl	h
    e908: cb 1d        	rr	l
    e90a: 10 fa        	djnz	$e906
    e90c: 55           	ld	d,l
    e90d: 7d           	ld	a,l
    e90e: 32 88 f3     	ld	($f388),a               ; 0xf388 <_cpm_sector_as_host>
;     if (hostbuf_valid) {
    e911: 3a bc ec     	ld	a,($ecbc)               ; 0xecbc <_wb+0x7>
    e914: 67           	ld	h,a
;     hostbuf_disk = cpm_disk;
    e915: 3a c7 ee     	ld	a,($eec7)               ; 0xeec7 <_cpm_disk>
    e918: 5f           	ld	e,a
;     if (hostbuf_valid) {
    e919: 7c           	ld	a,h
    e91a: b7           	or	a
    e91b: 28 2f        	jr	z,$e94c
;         if (cpm_disk == hostbuf_disk && hostbuf_track == cpm_track && cpm_sector_as_host == hostbuf_sector)
    e91d: 21 78 f1     	ld	hl,$f178
    e920: 7b           	ld	a,e
    e921: be           	cp	(hl)
    e922: 20 17        	jr	nz,$e93b
    e924: 2a 7a f1     	ld	hl,($f17a)              ; 0xf17a <_hostbuf_track>
    e927: 4d           	ld	c,l
    e928: 44           	ld	b,h
    e929: 2a c3 ec     	ld	hl,($ecc3)              ; 0xecc3 <_cpm_track>
    e92c: 78           	ld	a,b
    e92d: ac           	xor	h
    e92e: 67           	ld	h,a
    e92f: 79           	ld	a,c
    e930: ad           	xor	l
    e931: b4           	or	h
    e932: 20 07        	jr	nz,$e93b
    e934: 21 77 f1     	ld	hl,$f177
    e937: 7a           	ld	a,d
    e938: be           	cp	(hl)
    e939: 28 42        	jr	z,$e97d
;         if (hostbuf_dirty)
    e93b: 3a bd ec     	ld	a,($ecbd)               ; 0xecbd <_wb+0x8>
    e93e: b7           	or	a
    e93f: 28 0b        	jr	z,$e94c
;             wrthst();
    e941: cd fc e1     	call	$e1fc
;     hostbuf_disk = cpm_disk;
    e944: 3a c7 ee     	ld	a,($eec7)               ; 0xeec7 <_cpm_disk>
    e947: 5f           	ld	e,a
;     hostbuf_sector = cpm_sector_as_host;
    e948: 3a 88 f3     	ld	a,($f388)               ; 0xf388 <_cpm_sector_as_host>
    e94b: 57           	ld	d,a
;     hostbuf_valid = 1;
    e94c: 3e 01        	ld	a,$1
    e94e: 32 bc ec     	ld	($ecbc),a               ; 0xecbc <_wb+0x7>
;     hostbuf_disk = cpm_disk;
    e951: 7b           	ld	a,e
    e952: 32 78 f1     	ld	($f178),a               ; 0xf178 <_hostbuf_disk>
;     hostbuf_track = cpm_track;
    e955: 2a c3 ec     	ld	hl,($ecc3)              ; 0xecc3 <_cpm_track>
    e958: 22 7a f1     	ld	($f17a),hl              ; 0xf17a <_hostbuf_track>
;     hostbuf_sector = cpm_sector_as_host;
    e95b: 7a           	ld	a,d
    e95c: 32 77 f1     	ld	($f177),a               ; 0xf177 <_hostbuf_sector>
;     if (need_pre_read)
    e95f: 3a 86 f3     	ld	a,($f386)               ; 0xf386 <_need_pre_read>
    e962: b7           	or	a
    e963: 28 14        	jr	z,$e979
;     if (unalloc_mask)
    e965: 3a 89 f3     	ld	a,($f389)               ; 0xf389 <_unalloc_mask>
    e968: b7           	or	a
    e969: 20 04        	jr	nz,$e96f
;         unalloc_count = 0;
    e96b: af           	xor	a
    e96c: 32 bf ec     	ld	($ecbf),a               ; 0xecbf <_unalloc_count>
;     chktrk();
    e96f: cd 68 e7     	call	$e768
;     sec_rw(6, 0);               /* READ DATA, FDC→mem */
    e972: 3e 06        	ld	a,$6
    e974: 2e 00        	ld	l,$0
    e976: cd ec e7     	call	$e7ec
;     hostbuf_dirty = 0;
    e979: af           	xor	a
    e97a: 32 bd ec     	ld	($ecbd),a               ; 0xecbd <_wb+0x8>
;     if (is_read) {
    e97d: 3a 85 f3     	ld	a,($f385)               ; 0xf385 <_is_read>
    e980: ee 01        	xor	$1
    e982: 20 29        	jr	nz,$e9ad
;         memcpy(cpm_dma_addr, &hstbuf[(word)(cpm_sector & deblock_mask) << 7], 128);
    e984: 2a c1 ec     	ld	hl,($ecc1)              ; 0xecc1 <_cpm_dma_addr>
    e987: eb           	ex	de,hl
    e988: 2a c5 ec     	ld	hl,($ecc5)              ; 0xecc5 <_cpm_sector>
    e98b: 4d           	ld	c,l
    e98c: 44           	ld	b,h
    e98d: 21 d9 ee     	ld	hl,$eed9
    e990: 79           	ld	a,c
    e991: a6           	and	(hl)
    e992: 6f           	ld	l,a
    e993: 26 00        	ld	h,$0
    e995: 29           	add	hl,hl
    e996: 29           	add	hl,hl
    e997: 29           	add	hl,hl
    e998: 29           	add	hl,hl
    e999: 29           	add	hl,hl
    e99a: 29           	add	hl,hl
    e99b: 29           	add	hl,hl
    e99c: 4d           	ld	c,l
    e99d: 44           	ld	b,h
    e99e: 21 7d f1     	ld	hl,$f17d
    e9a1: 09           	add	hl,bc
    e9a2: 4d           	ld	c,l
    e9a3: 44           	ld	b,h
    e9a4: 21 80 00     	ld	hl,$80
    e9a7: e5           	push	hl
    e9a8: eb           	ex	de,hl
    e9a9: 59           	ld	e,c
    e9aa: 50           	ld	d,b
    e9ab: 18 29        	jr	$e9d6
;         hostbuf_dirty = 1;
    e9ad: 3e 01        	ld	a,$1
    e9af: 32 bd ec     	ld	($ecbd),a               ; 0xecbd <_wb+0x8>
;         memcpy(&hstbuf[(word)(cpm_sector & deblock_mask) << 7], cpm_dma_addr, 128);
    e9b2: 2a c5 ec     	ld	hl,($ecc5)              ; 0xecc5 <_cpm_sector>
    e9b5: eb           	ex	de,hl
    e9b6: 21 d9 ee     	ld	hl,$eed9
    e9b9: 7b           	ld	a,e
    e9ba: a6           	and	(hl)
    e9bb: 6f           	ld	l,a
    e9bc: 26 00        	ld	h,$0
    e9be: 29           	add	hl,hl
    e9bf: 29           	add	hl,hl
    e9c0: 29           	add	hl,hl
    e9c1: 29           	add	hl,hl
    e9c2: 29           	add	hl,hl
    e9c3: 29           	add	hl,hl
    e9c4: 29           	add	hl,hl
    e9c5: eb           	ex	de,hl
    e9c6: 21 7d f1     	ld	hl,$f17d
    e9c9: 19           	add	hl,de
    e9ca: 4d           	ld	c,l
    e9cb: 44           	ld	b,h
    e9cc: 2a c1 ec     	ld	hl,($ecc1)              ; 0xecc1 <_cpm_dma_addr>
    e9cf: eb           	ex	de,hl
    e9d0: 21 80 00     	ld	hl,$80
    e9d3: e5           	push	hl
    e9d4: 69           	ld	l,c
    e9d5: 60           	ld	h,b
    e9d6: cd ec ea     	call	$eaec
;     if (disk_error) {
    e9d9: 3a be ec     	ld	a,($ecbe)               ; 0xecbe <_wb+0x9>
    e9dc: b7           	or	a
    e9dd: 28 04        	jr	z,$e9e3
;         hostbuf_valid = 0;
    e9df: af           	xor	a
    e9e0: 32 bc ec     	ld	($ecbc),a               ; 0xecbc <_wb+0x7>
;     if (write_type == WRDIR && !disk_error) {
    e9e3: 3a 87 f3     	ld	a,($f387)               ; 0xf387 <_write_type>
    e9e6: 3d           	dec	a
    e9e7: 20 0d        	jr	nz,$e9f6
    e9e9: 3a be ec     	ld	a,($ecbe)               ; 0xecbe <_wb+0x9>
    e9ec: b7           	or	a
    e9ed: 20 07        	jr	nz,$e9f6
;         hostbuf_dirty = 0;
    e9ef: af           	xor	a
    e9f0: 32 bd ec     	ld	($ecbd),a               ; 0xecbd <_wb+0x8>
;         wrthst();
    e9f3: cd fc e1     	call	$e1fc
;         byte err = disk_error;
    e9f6: 3a be ec     	ld	a,($ecbe)               ; 0xecbe <_wb+0x9>
    e9f9: 57           	ld	d,a
;         disk_error = 0;
    e9fa: af           	xor	a
    e9fb: 32 be ec     	ld	($ecbe),a               ; 0xecbe <_wb+0x9>
;         return err;
    e9fe: 7a           	ld	a,d
    e9ff: c9           	ret

0000ea00 <_fdc_read>:
; DEFPORT(fdc_status,   PORT_FDC_STATUS)
    ea00: db 04        	in	a,($4)
    ea02: fe c0        	cp	$c0
    ea04: 38 fa        	jr	c,$ea00
; DEFPORT(fdc_data,     PORT_FDC_DATA)
    ea06: db 05        	in	a,($5)
;     return port_in(fdc_data);
    ea08: c9           	ret

0000ea09 <_bios_boot_shim>:
    ea09: 31 00 f5     	ld	sp,$f500
    ea0c: c3 8f da     	jp	$da8f

0000ea0f <_bios_wboot_shim>:
    ea0f: 31 00 f5     	ld	sp,$f500
    ea12: c3 f9 da     	jp	$daf9

0000ea15 <_jump_ccp>:
    ea15: 4f           	ld	c,a
    ea16: c3 00 c4     	jp	$c400

0000ea19 <_bios_conout_shim>:
    ea19: 79           	ld	a,c
    ea1a: c3 19 dd     	jp	$dd19

0000ea1d <_bios_list_shim>:
    ea1d: 79           	ld	a,c
    ea1e: c3 09 e1     	jp	$e109

0000ea21 <_bios_write_shim>:
    ea21: 79           	ld	a,c
    ea22: c3 39 e2     	jp	$e239

0000ea25 <_bios_punch_shim>:
    ea25: e5           	push	hl
    ea26: 79           	ld	a,c
    ea27: cd 41 e1     	call	$e141
    ea2a: e1           	pop	hl
    ea2b: c9           	ret

0000ea2c <_bios_settrk_shim>:
    ea2c: ed 43 c3 ec  	ld	($ecc3),bc              ; 0xecc3 <_cpm_track>
    ea30: c9           	ret

0000ea31 <_bios_setsec_shim>:
    ea31: ed 43 c5 ec  	ld	($ecc5),bc              ; 0xecc5 <_cpm_sector>
    ea35: c9           	ret

0000ea36 <_bios_setdma_shim>:
    ea36: ed 43 c1 ec  	ld	($ecc1),bc              ; 0xecc1 <_cpm_dma_addr>
    ea3a: c9           	ret

0000ea3b <_bios_seldsk_shim>:
    ea3b: 79           	ld	a,c
    ea3c: cd 65 db     	call	$db65
    ea3f: eb           	ex	de,hl
    ea40: c9           	ret

0000ea41 <_bios_sectran_shim>:
    ea41: 60           	ld	h,b
    ea42: 69           	ld	l,c
    ea43: c9           	ret

0000ea44 <_bios_reader_shim>:
    ea44: e5           	push	hl
    ea45: cd 69 e1     	call	$e169
    ea48: e1           	pop	hl
    ea49: 4f           	ld	c,a
    ea4a: c9           	ret

0000ea4b <_bios_reads_shim>:
    ea4b: e5           	push	hl
    ea4c: cd d3 e1     	call	$e1d3
    ea4f: e1           	pop	hl
    ea50: 4f           	ld	c,a
    ea51: c9           	ret

0000ea52 <_bios_wfitr_shim>:
    ea52: cd 7e da     	call	$da7e
    ea55: 3a 68 f0     	ld	a,($f068)               ; 0xf068 <_fdc_result>
    ea58: 47           	ld	b,a
    ea59: 3a 69 f0     	ld	a,($f069)               ; 0xf069 <_fdc_result+0x1>
    ea5c: 4f           	ld	c,a
    ea5d: c9           	ret

0000ea5e <_bios_linsel_shim>:
    ea5e: 32 01 ef     	ld	($ef01),a               ; 0xef01 <_ls_port>
    ea61: 78           	ld	a,b
    ea62: 32 00 ef     	ld	($ef00),a               ; 0xef00 <_ls_line>
    ea65: c3 0c e3     	jp	$e30c

0000ea68 <_bios_exit_shim>:
    ea68: 22 e5 ff     	ld	($ffe5),hl              ; 0xffe5 <__sfrend_sec_rw+0xc2e>
    ea6b: eb           	ex	de,hl
    ea6c: 22 df ff     	ld	($ffdf),hl              ; 0xffdf <__sfrend_sec_rw+0xc28>
    ea6f: c9           	ret

0000ea70 <_bios_clock_shim>:
    ea70: b7           	or	a
    ea71: 28 0a        	jr	z,$ea7d
    ea73: f3           	di
    ea74: ed 5b fc ff  	ld	de,($fffc)              ; 0xfffc <__sfrend_sec_rw+0xc45>
    ea78: 2a fe ff     	ld	hl,($fffe)              ; 0xfffe <__sfrend_sec_rw+0xc47>
    ea7b: fb           	ei
    ea7c: c9           	ret
    ea7d: ed 53 fc ff  	ld	($fffc),de              ; 0xfffc <__sfrend_sec_rw+0xc45>
    ea81: 22 fe ff     	ld	($fffe),hl              ; 0xfffe <__sfrend_sec_rw+0xc47>
    ea84: c9           	ret

0000ea85 <_set_i_reg>:
    ea85: ed 47        	ld	i,a
    ea87: c9           	ret

0000ea88 <_isr_crt_wrapper>:
    ea88: ed 73 18 ef  	ld	($ef18),sp              ; 0xef18 <_sp_sav>
    ea8c: 31 00 f6     	ld	sp,$f600
    ea8f: f5           	push	af
    ea90: c5           	push	bc
    ea91: d5           	push	de
    ea92: e5           	push	hl
    ea93: cd 93 e3     	call	$e393
    ea96: e1           	pop	hl
    ea97: d1           	pop	de
    ea98: c1           	pop	bc
    ea99: f1           	pop	af
    ea9a: ed 7b 18 ef  	ld	sp,($ef18)              ; 0xef18 <_sp_sav>
    ea9e: fb           	ei
    ea9f: ed 4d        	reti

0000eaa1 <_isr_floppy_wrapper>:
    eaa1: ed 73 18 ef  	ld	($ef18),sp              ; 0xef18 <_sp_sav>
    eaa5: 31 00 f6     	ld	sp,$f600
    eaa8: f5           	push	af
    eaa9: c5           	push	bc
    eaaa: d5           	push	de
    eaab: e5           	push	hl
    eaac: cd 5d e4     	call	$e45d
    eaaf: e1           	pop	hl
    eab0: d1           	pop	de
    eab1: c1           	pop	bc
    eab2: f1           	pop	af
    eab3: ed 7b 18 ef  	ld	sp,($ef18)              ; 0xef18 <_sp_sav>
    eab7: fb           	ei
    eab8: ed 4d        	reti

0000eaba <_isr_pio_kbd_wrapper>:
    eaba: ed 73 18 ef  	ld	($ef18),sp              ; 0xef18 <_sp_sav>
    eabe: 31 00 f6     	ld	sp,$f600
    eac1: f5           	push	af
    eac2: c5           	push	bc
    eac3: d5           	push	de
    eac4: e5           	push	hl
    eac5: cd 39 e4     	call	$e439
    eac8: e1           	pop	hl
    eac9: d1           	pop	de
    eaca: c1           	pop	bc
    eacb: f1           	pop	af
    eacc: ed 7b 18 ef  	ld	sp,($ef18)              ; 0xef18 <_sp_sav>
    ead0: fb           	ei
    ead1: ed 4d        	reti

0000ead3 <_isr_sio_a_rx_wrapper>:
    ead3: ed 73 18 ef  	ld	($ef18),sp              ; 0xef18 <_sp_sav>
    ead7: 31 00 f6     	ld	sp,$f600
    eada: f5           	push	af
    eadb: c5           	push	bc
    eadc: d5           	push	de
    eadd: e5           	push	hl
    eade: cd 34 e5     	call	$e534
    eae1: e1           	pop	hl
    eae2: d1           	pop	de
    eae3: c1           	pop	bc
    eae4: f1           	pop	af
    eae5: ed 7b 18 ef  	ld	sp,($ef18)              ; 0xef18 <_sp_sav>
    eae9: fb           	ei
    eaea: ed 4d        	reti

0000eaec <_memcpy>:
    eaec: fd e1        	pop	iy
    eaee: c1           	pop	bc
    eaef: eb           	ex	de,hl
    eaf0: 78           	ld	a,b
    eaf1: b1           	or	c
    eaf2: 28 02        	jr	z,$eaf6
    eaf4: ed b0        	ldir
    eaf6: fd e9        	jp	(iy)

0000eaf8 <_memset>:
    eaf8: fd e1        	pop	iy
    eafa: c1           	pop	bc
    eafb: 78           	ld	a,b
    eafc: b1           	or	c
    eafd: 28 0b        	jr	z,$eb0a
    eaff: 73           	ld	(hl),e
    eb00: 0b           	dec	bc
    eb01: 78           	ld	a,b
    eb02: b1           	or	c
    eb03: 28 05        	jr	z,$eb0a
    eb05: 54           	ld	d,h
    eb06: 5d           	ld	e,l
    eb07: 13           	inc	de
    eb08: ed b0        	ldir
    eb0a: fd e9        	jp	(iy)

0000eb0c <_lddr_copy>:
    eb0c: fd e1        	pop	iy
    eb0e: c1           	pop	bc
    eb0f: ed b8        	lddr
    eb11: fd e9        	jp	(iy)

0000eb13 <__call_iy>:
    eb13: fd e9        	jp	(iy)

0000eb15 <___umodqi3>:
    eb15: 43           	ld	b,e
    eb16: b7           	or	a
    eb17: 28 04        	jr	z,$eb1d
    eb19: 90           	sub	b
    eb1a: 30 fd        	jr	nc,$eb19
    eb1c: 80           	add	a,b
    eb1d: c9           	ret
