
clang/prom.clang.elf:	file format elf32-unknown

Disassembly of section .boot:

00000000 <_start>:
;     __asm__ volatile("di");
       0: f3           	di
;     SET_SP(ROM_STACK);
       1: 31 ff bf     	ld	sp,$bfff
;     memcpy(RELOC_DST, RELOC_SRC, RELOC_SIZE);
       4: 21 68 00     	ld	hl,$68
       7: 11 00 60     	ld	de,$6000
       a: 01 52 07     	ld	bc,$752
       d: 78           	ld	a,b
       e: b1           	or	c
       f: 28 02        	jr	z,$13
      11: ed b0        	ldir
;         memset(BSS_DST, 0, BSS_SIZE);
      13: 21 1d 67     	ld	hl,$671d
      16: 1e 00        	ld	e,$0
      18: 01 35 00     	ld	bc,$35
      1b: 78           	ld	a,b
      1c: b1           	or	c
      1d: 28 0b        	jr	z,$2a
      1f: 73           	ld	(hl),e
      20: 0b           	dec	bc
      21: 78           	ld	a,b
      22: b1           	or	c
      23: 28 05        	jr	z,$2a
      25: 54           	ld	d,h
      26: 5d           	ld	e,l
      27: 13           	inc	de
      28: ed b0        	ldir
;     main_relocated();
      2a: c3 1e 64     	jp	$641e

0000002d <_banner_string>:
      2d: 20 52 43 37 30 30 20 43          RC700 C
      35: 4c 20 32 30 32 36 2d 30         L 2026-0
      3d: 35 2d 31 35 20 31 36 2e         5-15 16.
      45: 33 37 2f 72 61 76 6e 00         37/ravn.

Disassembly of section .nmi:

00000066 <_nmi_handler>:
      66: ed 45        	retn

Disassembly of section .text:

00006000 <__code_start>:
    6000: d3 63        	out	($63),a
    6002: d3 63        	out	($63),a
    6004: d3 63        	out	($63),a
    6006: d3 63        	out	($63),a
    6008: d3 63        	out	($63),a
    600a: d3 63        	out	($63),a
    600c: d6 63        	sub	$63
    600e: 00           	nop
    600f: 64           	ld	h,h
    6010: d3 63        	out	($63),a
    6012: d3 63        	out	($63),a
    6014: d3 63        	out	($63),a
    6016: d3 63        	out	($63),a
    6018: d3 63        	out	($63),a
    601a: d3 63        	out	($63),a
    601c: d3 63        	out	($63),a
    601e: d3 63        	out	($63),a

00006020 <_fdc_write_when_ready>:
; void fdc_write_when_ready(byte val) {
    6020: 57           	ld	d,a
    6021: 01 00 00     	ld	bc,$0
; DEFPORT(fdc_status,   0x04)
    6024: db 04        	in	a,($4)
;         if ((fdc_status() & 0b11000000) == 0b10000000) {
    6026: ee 80        	xor	$80
    6028: fe 40        	cp	$40
    602a: 38 0f        	jr	c,$603b
;     } while (++t);
    602c: 21 01 00     	ld	hl,$1
    602f: 09           	add	hl,bc
    6030: 9f           	sbc	a,a
    6031: e6 01        	and	$1
    6033: 4d           	ld	c,l
    6034: 44           	ld	b,h
    6035: ee 01        	xor	$1
    6037: 0f           	rrca
    6038: 38 ea        	jr	c,$6024
; }
    603a: c9           	ret
; DEFPORT(fdc_data,     0x05)
    603b: 7a           	ld	a,d
    603c: d3 05        	out	($5),a
; }
    603e: c9           	ret

0000603f <_fdc_read_when_ready>:
; byte fdc_read_when_ready(void) {
    603f: 01 00 00     	ld	bc,$0
; DEFPORT(fdc_status,   0x04)
    6042: db 04        	in	a,($4)
    6044: fe c0        	cp	$c0
    6046: 30 11        	jr	nc,$6059
;     } while (++t);
    6048: 21 01 00     	ld	hl,$1
    604b: 09           	add	hl,bc
    604c: 9f           	sbc	a,a
    604d: e6 01        	and	$1
    604f: 4d           	ld	c,l
    6050: 44           	ld	b,h
    6051: ee 01        	xor	$1
    6053: 0f           	rrca
    6054: 38 ec        	jr	c,$6042
    6056: 3e ff        	ld	a,$ff
; }
    6058: c9           	ret
; DEFPORT(fdc_data,     0x05)
    6059: db 05        	in	a,($5)
; }
    605b: c9           	ret

0000605c <_delay>:
; void delay(byte outer, byte inner) {
    605c: 4f           	ld	c,a
    605d: b7           	or	a
    605e: c8           	ret	z
    605f: 65           	ld	h,l
    6060: 06 00        	ld	b,$0
;             } while (--k);
    6062: 78           	ld	a,b
    6063: 3d           	dec	a
    6064: 47           	ld	b,a
    6065: b7           	or	a
    6066: 20 fa        	jr	nz,$6062
;         } while (--mid);
    6068: 7c           	ld	a,h
    6069: 3d           	dec	a
    606a: 67           	ld	h,a
    606b: b7           	or	a
    606c: 20 f2        	jr	nz,$6060
;     } while (--outer);
    606e: 79           	ld	a,c
    606f: 3d           	dec	a
    6070: 18 ea        	jr	$605c

00006072 <_lookup_sectors_and_gap3_for_current_track>:
;     const format_entry *fmt = &eot_gap3_table[is_mini][fdc_cmd.size_shift][is_mfm];
    6072: 3a 1d 67     	ld	a,($671d)               ; 0x671d <_is_mini>
    6075: 6f           	ld	l,a
    6076: 26 00        	ld	h,$0
    6078: 29           	add	hl,hl
    6079: 29           	add	hl,hl
    607a: 29           	add	hl,hl
    607b: 29           	add	hl,hl
    607c: eb           	ex	de,hl
    607d: 21 7a 66     	ld	hl,$667a
    6080: 19           	add	hl,de
    6081: eb           	ex	de,hl
    6082: 3a 21 67     	ld	a,($6721)               ; 0x6721 <_fdc_cmd+0x3>
    6085: 6f           	ld	l,a
    6086: 26 00        	ld	h,$0
    6088: 29           	add	hl,hl
    6089: 29           	add	hl,hl
    608a: 19           	add	hl,de
    608b: eb           	ex	de,hl
    608c: 3a 25 67     	ld	a,($6725)               ; 0x6725 <_is_mfm>
    608f: 6f           	ld	l,a
    6090: 26 00        	ld	h,$0
    6092: 29           	add	hl,hl
    6093: 19           	add	hl,de
;     fdc_cmd.eot = fmt->eot;
    6094: 7e           	ld	a,(hl)
    6095: 32 22 67     	ld	($6722),a               ; 0x6722 <_fdc_cmd+0x4>
;     fdc_cmd.gap3 = fmt->gap3;
    6098: 23           	inc	hl
    6099: 7e           	ld	a,(hl)
    609a: 32 23 67     	ld	($6723),a               ; 0x6723 <_fdc_cmd+0x5>
;     fdc_cmd.dtl = 0x80;
    609d: 3e 80        	ld	a,$80
    609f: 32 24 67     	ld	($6724),a               ; 0x6724 <_fdc_cmd+0x6>
; }
    60a2: c9           	ret

000060a3 <_calc_size_of_current_track>:
;     byte sectors = ((disk_type & 0b10000000) && fdc_cmd.head == 1)
    60a3: 3a 26 67     	ld	a,($6726)               ; 0x6726 <_disk_type>
    60a6: 07           	rlca
    60a7: 30 09        	jr	nc,$60b2
    60a9: 3a 1f 67     	ld	a,($671f)               ; 0x671f <_fdc_cmd+0x1>
    60ac: 21 0a 00     	ld	hl,$a
    60af: 3d           	dec	a
    60b0: 28 0b        	jr	z,$60bd
    60b2: 21 20 67     	ld	hl,$6720
;                        : fdc_cmd.eot - fdc_cmd.sector + 1;
    60b5: 3a 22 67     	ld	a,($6722)               ; 0x6722 <_fdc_cmd+0x4>
    60b8: 3c           	inc	a
    60b9: 96           	sub	(hl)
;     word tb = (word) sectors;
    60ba: 6f           	ld	l,a
    60bb: 26 00        	ld	h,$0
;     for (byte i = 7 + fdc_cmd.size_shift; i != 0; i--) {
    60bd: 3a 21 67     	ld	a,($6721)               ; 0x6721 <_fdc_cmd+0x3>
    60c0: c6 07        	add	a,$7
    60c2: 4f           	ld	c,a
    60c3: b7           	or	a
    60c4: 28 04        	jr	z,$60ca
;         tb <<= 1;
    60c6: 29           	add	hl,hl
;     for (byte i = 7 + fdc_cmd.size_shift; i != 0; i--) {
    60c7: 3d           	dec	a
    60c8: 18 f8        	jr	$60c2
;     dma_transfer_size = tb;
    60ca: 22 27 67     	ld	($6727),hl              ; 0x6727 <_dma_transfer_size>
; }
    60cd: c9           	ret

000060ce <_fdc_sense_interrupt>:
;     fdc_write_when_ready(FDC_SENSE_INT);
    60ce: 3e 08        	ld	a,$8
    60d0: cd 20 60     	call	$6020
;     fdc_result.st0 = fdc_read_when_ready();
    60d3: cd 3f 60     	call	$603f
    60d6: 32 29 67     	ld	($6729),a               ; 0x6729 <_fdc_result>
;     if ((fdc_result.st0 & 0b11000000) != 0b10000000) {
    60d9: ee 80        	xor	$80
    60db: fe 40        	cp	$40
    60dd: d8           	ret	c
;         fdc_result.st1 = fdc_read_when_ready(); /* PCN (present cylinder) */
    60de: cd 3f 60     	call	$603f
    60e1: 32 2a 67     	ld	($672a),a               ; 0x672a <_fdc_result+0x1>
; }
    60e4: c9           	ret

000060e5 <_fdc_read_result>:
; void fdc_read_result(void) {
    60e5: 01 00 00     	ld	bc,$0
;     for (i = 0; i < 7; i++) {
    60e8: 79           	ld	a,c
    60e9: fe 07        	cp	$7
    60eb: 28 17        	jr	z,$6104
    60ed: c5           	push	bc
;         p[i] = fdc_read_when_ready();
    60ee: cd 3f 60     	call	$603f
    60f1: c1           	pop	bc
;         p[i] = fdc_read_when_ready();
    60f2: 21 29 67     	ld	hl,$6729
    60f5: 09           	add	hl,bc
    60f6: 77           	ld	(hl),a
; DEFPORT(fdc_status,   0x04)
    60f7: db 04        	in	a,($4)
;         if (!(fdc_status() & 0b00010000)) {
    60f9: e6 10        	and	$10
;     for (i = 0; i < 7; i++) {
    60fb: 03           	inc	bc
;         if (!(fdc_status() & 0b00010000)) {
    60fc: b7           	or	a
    60fd: 20 e9        	jr	nz,$60e8
; DEFPORT(dma_cmd,      0xF8)
    60ff: db f8        	in	a,($f8)
;             p[i + 1] = dma_status();
    6101: 23           	inc	hl
    6102: 77           	ld	(hl),a
; }
    6103: c9           	ret
;     error_saved = 0xFE;
    6104: 3e fe        	ld	a,$fe
    6106: 32 31 67     	ld	($6731),a               ; 0x6731 <_error_saved>
;     error_display_halt(0xFE);
    6109: c3 0c 61     	jp	$610c

0000610c <_error_display_halt>:
;     error_saved = code;
    610c: 32 31 67     	ld	($6731),a               ; 0x6731 <_error_saved>
;     __asm__ volatile("ei");
    610f: fb           	ei
;     if (disk_type & 0b00000001) {
    6110: 3a 26 67     	ld	a,($6726)               ; 0x6726 <_disk_type>
    6113: 0f           	rrca
    6114: 30 01        	jr	nc,$6117
; }
    6116: c9           	ret
; DEFPORT(bib,          0x1C)
    6117: af           	xor	a
    6118: d3 1c        	out	($1c),a
;     halt_msg("**DISKETTE ERROR** ", 19);
    611a: 21 b5 66     	ld	hl,$66b5
    611d: 11 f0 7a     	ld	de,$7af0
    6120: 01 13 00     	ld	bc,$13
    6123: ed b0        	ldir
    6125: cd b7 62     	call	$62b7

00006128 <_wait_fdc_ready>:
; byte wait_fdc_ready(byte timeout) {
    6128: 4f           	ld	c,a
    6129: 16 01        	ld	d,$1
;     while (--timeout) {
    612b: 79           	ld	a,c
    612c: 3d           	dec	a
    612d: 5f           	ld	e,a
    612e: b7           	or	a
    612f: 28 21        	jr	z,$6152
;         delay_ms(WAITFL_POLL_MS);
    6131: 3e 01        	ld	a,$1
    6133: 2e 02        	ld	l,$2
    6135: f5           	push	af
    6136: 7b           	ld	a,e
    6137: 32 42 67     	ld	($6742),a               ; 0x6742 <__sfrend_fdc_read_result>
    613a: f1           	pop	af
    613b: cd 5c 60     	call	$605c
    613e: 3a 42 67     	ld	a,($6742)               ; 0x6742 <__sfrend_fdc_read_result>
    6141: 4f           	ld	c,a
    6142: 16 01        	ld	d,$1
;         if (floppy_operation_completed_flag) {
    6144: 3a 32 67     	ld	a,($6732)               ; 0x6732 <_floppy_operation_completed_flag>
    6147: b7           	or	a
    6148: 28 e1        	jr	z,$612b
;     __asm__ volatile("di");
    614a: f3           	di
;             floppy_operation_completed_flag = 0;
    614b: 16 00        	ld	d,$0
    614d: af           	xor	a
    614e: 32 32 67     	ld	($6732),a               ; 0x6732 <_floppy_operation_completed_flag>
;     __asm__ volatile("ei");
    6151: fb           	ei
; }
    6152: 7a           	ld	a,d
    6153: c9           	ret

00006154 <_fdc_select_drive_cylinder_head>:
;     fdc_seek((byte)((fdc_cmd.head << 2) | drive_select), fdc_cmd.cylinder);
    6154: 3a 1f 67     	ld	a,($671f)               ; 0x671f <_fdc_cmd+0x1>
    6157: 87           	add	a,a
    6158: 87           	add	a,a
    6159: 21 33 67     	ld	hl,$6733
    615c: b6           	or	(hl)
    615d: f5           	push	af
    615e: 3a 1e 67     	ld	a,($671e)               ; 0x671e <_fdc_cmd>
    6161: 32 44 67     	ld	($6744),a               ; 0x6744 <__sfrend_wait_fdc_ready+0x1>
;     fdc_write_when_ready(FDC_SEEK);
    6164: 3e 0f        	ld	a,$f
    6166: cd 20 60     	call	$6020
;     fdc_write_when_ready(head_and_drive & 0b00000111); /* HD + US (head + drive) */
    6169: f1           	pop	af
    616a: e6 07        	and	$7
    616c: cd 20 60     	call	$6020
;     fdc_write_when_ready(cylinder); /* NCN (new cylinder number) */
    616f: 3a 44 67     	ld	a,($6744)               ; 0x6744 <__sfrend_wait_fdc_ready+0x1>
    6172: cd 20 60     	call	$6020
;     return verify_seek_result(fdc_cmd.cylinder);
    6175: 3a 1e 67     	ld	a,($671e)               ; 0x671e <_fdc_cmd>
    6178: c3 7b 61     	jp	$617b

0000617b <_verify_seek_result>:
; static byte verify_seek_result(byte expected_pcn) {
    617b: 32 45 67     	ld	($6745),a               ; 0x6745 <__sfrend_fdc_select_drive_cylinder_head>
;     if (wait_fdc_ready(0xFF)) {
    617e: 3e ff        	ld	a,$ff
    6180: cd 28 61     	call	$6128
    6183: 16 01        	ld	d,$1
;     if (wait_fdc_ready(0xFF)) {
    6185: b7           	or	a
    6186: 20 1f        	jr	nz,$61a7
    6188: 3a 45 67     	ld	a,($6745)               ; 0x6745 <__sfrend_fdc_select_drive_cylinder_head>
    618b: 4f           	ld	c,a
;     if ((drive_select + 0b00100000) != fdc_result.st0 || /* SE+drive */ /* TODO:  Should this be an and? */
    618c: 3a 33 67     	ld	a,($6733)               ; 0x6733 <_drive_select>
    618f: 5f           	ld	e,a
    6190: 3a 29 67     	ld	a,($6729)               ; 0x6729 <_fdc_result>
    6193: 67           	ld	h,a
    6194: 16 02        	ld	d,$2
    6196: 7b           	ld	a,e
    6197: c6 20        	add	a,$20
    6199: 38 0c        	jr	c,$61a7
    619b: bc           	cp	h
    619c: 20 09        	jr	nz,$61a7
    619e: 21 2a 67     	ld	hl,$672a
;     if ((drive_select + 0b00100000) != fdc_result.st0 || /* SE+drive */ /* TODO:  Should this be an and? */
    61a1: 79           	ld	a,c
    61a2: be           	cp	(hl)
    61a3: 20 02        	jr	nz,$61a7
    61a5: 16 00        	ld	d,$0
; }
    61a7: 7a           	ld	a,d
    61a8: c9           	ret

000061a9 <_fdc_write_full_cmd>:
; void fdc_write_full_cmd(byte cmd) {
    61a9: 5f           	ld	e,a
;     byte mfm_flag = is_mfm ? FDC_MFM : 0;
    61aa: 3a 25 67     	ld	a,($6725)               ; 0x6725 <_is_mfm>
    61ad: b7           	or	a
    61ae: 28 04        	jr	z,$61b4
    61b0: 16 40        	ld	d,$40
    61b2: 18 02        	jr	$61b6
;     byte mfm_flag = is_mfm ? FDC_MFM : 0;
    61b4: 16 00        	ld	d,$0
;     byte dh = (byte)((fdc_cmd.head << 2) | drive_select);
    61b6: 3a 1f 67     	ld	a,($671f)               ; 0x671f <_fdc_cmd+0x1>
    61b9: 87           	add	a,a
    61ba: 87           	add	a,a
    61bb: 21 33 67     	ld	hl,$6733
    61be: b6           	or	(hl)
    61bf: f5           	push	af
;     __asm__ volatile("di");
    61c0: f3           	di
;     fdc_write_when_ready(cmd + mfm_flag); /* command (+MFM if double density) */
    61c1: 7a           	ld	a,d
    61c2: 83           	add	a,e
    61c3: f5           	push	af
    61c4: 7b           	ld	a,e
    61c5: 32 46 67     	ld	($6746),a               ; 0x6746 <__sfrend_verify_seek_result>
    61c8: f1           	pop	af
    61c9: cd 20 60     	call	$6020
;     fdc_write_when_ready(dh); /* head/drive select */
    61cc: f1           	pop	af
    61cd: cd 20 60     	call	$6020
;     if ((cmd & 0b00001111) == FDC_READ_DATA) {
    61d0: 3a 46 67     	ld	a,($6746)               ; 0x6746 <__sfrend_verify_seek_result>
    61d3: e6 0f        	and	$f
    61d5: fe 06        	cp	$6
    61d7: 20 15        	jr	nz,$61ee
    61d9: 11 00 00     	ld	de,$0
;         for (i = 0; i < sizeof(fdc_cmd); i++) {
    61dc: 7b           	ld	a,e
    61dd: fe 07        	cp	$7
    61df: 28 0d        	jr	z,$61ee
;             fdc_write_when_ready(((byte *) &fdc_cmd)[i]);
    61e1: 21 1e 67     	ld	hl,$671e
    61e4: 19           	add	hl,de
    61e5: 7e           	ld	a,(hl)
    61e6: d5           	push	de
    61e7: cd 20 60     	call	$6020
    61ea: d1           	pop	de
;         for (i = 0; i < sizeof(fdc_cmd); i++) {
    61eb: 13           	inc	de
    61ec: 18 ee        	jr	$61dc
;     __asm__ volatile("ei");
    61ee: fb           	ei
; }
    61ef: c9           	ret

000061f0 <_check_fdc_result>:
;     if ((fdc_result.st0 & 0b11000011) == drive_select && /* ST0: IC=00 + drive */
    61f0: 3a 29 67     	ld	a,($6729)               ; 0x6729 <_fdc_result>
    61f3: e6 c3        	and	$c3
    61f5: 21 33 67     	ld	hl,$6733
    61f8: be           	cp	(hl)
    61f9: 20 0d        	jr	nz,$6208
;         fdc_result.st1 == 0 && /* ST1: no errors */
    61fb: 3a 2a 67     	ld	a,($672a)               ; 0x672a <_fdc_result+0x1>
    61fe: b7           	or	a
    61ff: 20 07        	jr	nz,$6208
;         (fdc_result.st2 & 0b10111111) == 0) {
    6201: 3a 2b 67     	ld	a,($672b)               ; 0x672b <_fdc_result+0x2>
    6204: e6 bf        	and	$bf
;         fdc_result.st1 == 0 && /* ST1: no errors */
    6206: 28 0c        	jr	z,$6214
;         retry_count--;
    6208: 21 34 67     	ld	hl,$6734
    620b: 35           	dec	(hl)
;         return (retry_count == 0) ? 2 : 1;
    620c: 28 03        	jr	z,$6211
    620e: 3e 01        	ld	a,$1
; }
    6210: c9           	ret
    6211: 3e 02        	ld	a,$2
; }
    6213: c9           	ret
    6214: af           	xor	a
; }
    6215: c9           	ret

00006216 <_fdc_get_result_bytes>:
;     saved_fdc_command = cmd;
    6216: 32 35 67     	ld	($6735),a               ; 0x6735 <_saved_fdc_command>
;     retry_count = retries;
    6219: 7d           	ld	a,l
    621a: 32 34 67     	ld	($6734),a               ; 0x6734 <_retry_count>
;     __asm__ volatile("di");
    621d: f3           	di
;         floppy_operation_completed_flag = 0;
    621e: af           	xor	a
    621f: 32 32 67     	ld	($6732),a               ; 0x6732 <_floppy_operation_completed_flag>
;     __asm__ volatile("ei");
    6222: fb           	ei
;         if ((saved_fdc_command & 0b00001111) != FDC_READ_ID) {
    6223: 3a 35 67     	ld	a,($6735)               ; 0x6735 <_saved_fdc_command>
    6226: 57           	ld	d,a
    6227: e6 0f        	and	$f
    6229: fe 0a        	cp	$a
    622b: 28 28        	jr	z,$6255
;     __asm__ volatile("di");
    622d: f3           	di
; DEFPORT(dma_smsk,     0xFA)
    622e: 3e 05        	ld	a,$5
    6230: d3 fa        	out	($fa),a
; DEFPORT(dma_mode,     0xFB)
    6232: 3e 45        	ld	a,$45
    6234: d3 fb        	out	($fb),a
; DEFPORT(dma_clbp,     0xFC)
    6236: af           	xor	a
    6237: d3 fc        	out	($fc),a
;             dma_ch1_addr(dma_transfer_address); /* transfer destination address */
    6239: 2a 36 67     	ld	hl,($6736)              ; 0x6736 <_dma_transfer_address>
    623c: 7d           	ld	a,l
; DEFPORT(dma_ch1_addr, 0xF2)
    623d: d3 f2        	out	($f2),a
    623f: 7c           	ld	a,h
    6240: d3 f2        	out	($f2),a
;             dma_ch1_wc(dma_transfer_size - 1); /* word count (N-1) */
    6242: 2a 27 67     	ld	hl,($6727)              ; 0x6727 <_dma_transfer_size>
    6245: 2b           	dec	hl
    6246: 7d           	ld	a,l
; DEFPORT(dma_ch1_wc,   0xF3)
    6247: d3 f3        	out	($f3),a
    6249: 7c           	ld	a,h
    624a: d3 f3        	out	($f3),a
; DEFPORT(dma_smsk,     0xFA)
    624c: 3e 01        	ld	a,$1
    624e: d3 fa        	out	($fa),a
;     __asm__ volatile("ei");
    6250: fb           	ei
;         fdc_write_full_cmd(saved_fdc_command);
    6251: 3a 35 67     	ld	a,($6735)               ; 0x6735 <_saved_fdc_command>
    6254: 57           	ld	d,a
    6255: 7a           	ld	a,d
    6256: cd a9 61     	call	$61a9
;         if (wait_fdc_ready(0xFF)) {
    6259: 3e ff        	ld	a,$ff
    625b: cd 28 61     	call	$6128
    625e: 57           	ld	d,a
    625f: 1e 01        	ld	e,$1
    6261: 7b           	ld	a,e
    6262: 32 49 67     	ld	($6749),a               ; 0x6749 <__sfrend_fdc_write_full_cmd>
    6265: 7a           	ld	a,d
    6266: b7           	or	a
    6267: 20 0e        	jr	nz,$6277
;         r = check_fdc_result();
    6269: cd f0 61     	call	$61f0
    626c: 57           	ld	d,a
;         if (r == 0) {
    626d: fe 02        	cp	$2
    626f: 28 06        	jr	z,$6277
    6271: b7           	or	a
    6272: 20 a9        	jr	nz,$621d
    6274: 32 49 67     	ld	($6749),a               ; 0x6749 <__sfrend_fdc_write_full_cmd>
; }
    6277: 3a 49 67     	ld	a,($6749)               ; 0x6749 <__sfrend_fdc_write_full_cmd>
    627a: c9           	ret

0000627b <_fdc_detect_sector_size_and_density>:
; byte fdc_detect_sector_size_and_density(void) {
    627b: 16 00        	ld	d,$0
    627d: 7a           	ld	a,d
    627e: 32 25 67     	ld	($6725),a               ; 0x6725 <_is_mfm>
;         if (fdc_select_drive_cylinder_head() != 0) {
    6281: cd 54 61     	call	$6154
    6284: b7           	or	a
    6285: 20 1a        	jr	nz,$62a1
;         dma_transfer_size = 4;
    6287: 21 04 00     	ld	hl,$4
    628a: 22 27 67     	ld	($6727),hl              ; 0x6727 <_dma_transfer_size>
;         if (fdc_get_result_bytes(FDC_READ_ID, 1) == 0) {
    628d: 3e 0a        	ld	a,$a
    628f: 2e 01        	ld	l,$1
    6291: cd 16 62     	call	$6216
    6294: b7           	or	a
    6295: 28 0e        	jr	z,$62a5
;         if (is_mfm) {
    6297: 3a 25 67     	ld	a,($6725)               ; 0x6725 <_is_mfm>
    629a: 16 01        	ld	d,$1
    629c: b7           	or	a
    629d: 28 de        	jr	z,$627d
    629f: 18 14        	jr	$62b5
    62a1: 16 01        	ld	d,$1
;         if (fdc_select_drive_cylinder_head() != 0) {
    62a3: 18 10        	jr	$62b5
;     fdc_cmd.size_shift = fdc_result.size_code & 0b00000111;
    62a5: 3a 2f 67     	ld	a,($672f)               ; 0x672f <_fdc_result+0x6>
    62a8: e6 07        	and	$7
    62aa: 32 21 67     	ld	($6721),a               ; 0x6721 <_fdc_cmd+0x3>
;     lookup_sectors_and_gap3_for_current_track();
    62ad: cd 72 60     	call	$6072
;     calc_size_of_current_track();
    62b0: cd a3 60     	call	$60a3
    62b3: 16 00        	ld	d,$0
; }
    62b5: 7a           	ld	a,d
    62b6: c9           	ret

000062b7 <_halt_forever>:
; DEFPORT(ctc3,         0x0F)
    62b7: 3e 03        	ld	a,$3
    62b9: d3 0f        	out	($f),a
; DEFPORT(dma_smsk,     0xFA)
    62bb: 3e 05        	ld	a,$5
    62bd: d3 fa        	out	($fa),a
;     __asm__ volatile("ei");
    62bf: fb           	ei
;     for (;;);
    62c0: 18 fe        	jr	$62c0

000062c2 <_compare_6bytes>:
; byte compare_6bytes(const byte *a, const byte *b) {
    62c2: 4d           	ld	c,l
    62c3: 44           	ld	b,h
    62c4: 6b           	ld	l,e
    62c5: 62           	ld	h,d
    62c6: 1e 06        	ld	e,$6
;         if (*a++ != *b++) {
    62c8: 0a           	ld	a,(bc)
    62c9: be           	cp	(hl)
    62ca: 20 0a        	jr	nz,$62d6
    62cc: 23           	inc	hl
    62cd: 03           	inc	bc
;     } while (--i);
    62ce: 7b           	ld	a,e
    62cf: 3d           	dec	a
    62d0: 5f           	ld	e,a
    62d1: b7           	or	a
    62d2: 20 f4        	jr	nz,$62c8
    62d4: af           	xor	a
; }
    62d5: c9           	ret
    62d6: 3e 01        	ld	a,$1
; }
    62d8: c9           	ret

000062d9 <_check_sysfile>:
; byte check_sysfile(const byte *dir, const char *pattern) {
    62d9: 4d           	ld	c,l
    62da: 44           	ld	b,h
    62db: 6b           	ld	l,e
    62dc: 62           	ld	h,d
    62dd: 1e 04        	ld	e,$4
    62df: ed 43 4a 67  	ld	($674a),bc              ; 0x674a <__sfrend_fdc_get_result_bytes>
    62e3: 03           	inc	bc
;         if (*dir++ != *pattern++) {
    62e4: 0a           	ld	a,(bc)
    62e5: be           	cp	(hl)
    62e6: 20 19        	jr	nz,$6301
    62e8: 23           	inc	hl
;     } while (--i);
    62e9: 7b           	ld	a,e
    62ea: 3d           	dec	a
    62eb: 5f           	ld	e,a
    62ec: b7           	or	a
    62ed: 20 f4        	jr	nz,$62e3
    62ef: 11 08 00     	ld	de,$8
;     if ((dir[3] & 0b00111111) != 0x13) {
    62f2: 2a 4a 67     	ld	hl,($674a)              ; 0x674a <__sfrend_fdc_get_result_bytes>
    62f5: 19           	add	hl,de
    62f6: 7e           	ld	a,(hl)
    62f7: e6 3f        	and	$3f
    62f9: d6 13        	sub	$13
    62fb: c6 ff        	add	a,$ff
    62fd: 9f           	sbc	a,a
    62fe: e6 01        	and	$1
; }
    6300: c9           	ret
    6301: 3e 01        	ld	a,$1
; }
    6303: c9           	ret

00006304 <_prom1_if_present>:
;     if (compare_6bytes((const byte *) 0x2002, (const byte *) msg_rc702) == 0) {
    6304: 21 02 20     	ld	hl,$2002
    6307: 11 14 67     	ld	de,$6714
    630a: cd c2 62     	call	$62c2
    630d: b7           	or	a
    630e: 20 09        	jr	nz,$6319
;         jump_to(*(word *)0x2000);
    6310: 2a 00 20     	ld	hl,($2000)              ; 0x2000 <__prom_end+0x1846>
    6313: e5           	push	hl
    6314: fd e1        	pop	iy
    6316: c3 1b 67     	jp	$671b
;     halt_msg(" **NO DISKETTE NOR LINEPROG** ", 30);
    6319: 21 f5 66     	ld	hl,$66f5
    631c: 11 f0 7a     	ld	de,$7af0
    631f: 01 1e 00     	ld	bc,$1e
    6322: ed b0        	ldir
    6324: cd b7 62     	call	$62b7

00006327 <_floppy_legacy_boot>:
;     disk_type = (byte)((is_mini << 7) | disk_type);
    6327: 3a 1d 67     	ld	a,($671d)               ; 0x671d <_is_mini>
    632a: 0f           	rrca
    632b: e6 80        	and	$80
    632d: 21 26 67     	ld	hl,$6726
    6330: b6           	or	(hl)
;     disk_type--;
    6331: 3d           	dec	a
    6332: 32 26 67     	ld	($6726),a               ; 0x6726 <_disk_type>
;     fdc_detect_sector_size_and_density();
    6335: cd 7b 62     	call	$627b
;     dma_transfer_address = FLOPPYDATA;
    6338: 21 00 00     	ld	hl,$0
    633b: 22 36 67     	ld	($6736),hl              ; 0x6736 <_dma_transfer_address>
;     fdc_read_data_from_current_location(INTVEC_ADDR);
    633e: 21 00 60     	ld	hl,$6000
    6341: cd 50 63     	call	$6350
;     disk_type = 1;
    6344: 3e 01        	ld	a,$1
    6346: 32 26 67     	ld	($6726),a               ; 0x6726 <_disk_type>
;     jump_to(LEGACYBOOT);
    6349: fd 21 00 10  	ld	iy,$1000
    634d: c3 1b 67     	jp	$671b

00006350 <_fdc_read_data_from_current_location>:
;     bytes_left_to_read = total_bytes_to_read;
    6350: 22 3b 67     	ld	($673b),hl              ; 0x673b <_bytes_left_to_read>
;         byte r = fdc_select_drive_cylinder_head();
    6353: cd 54 61     	call	$6154
    6356: 57           	ld	d,a
;         if (r == 1) {
    6357: b7           	or	a
    6358: 20 69        	jr	nz,$63c3
;             calc_size_of_current_track();
    635a: cd a3 60     	call	$60a3
;             remaining = (int16_t) bytes_left_to_read - (int16_t) dma_transfer_size;
    635d: 2a 3b 67     	ld	hl,($673b)              ; 0x673b <_bytes_left_to_read>
    6360: eb           	ex	de,hl
    6361: 2a 27 67     	ld	hl,($6727)              ; 0x6727 <_dma_transfer_size>
    6364: 4d           	ld	c,l
    6365: 44           	ld	b,h
    6366: 6b           	ld	l,e
    6367: 62           	ld	h,d
    6368: a7           	and	a
    6369: ed 42        	sbc	hl,bc
    636b: 0e 01        	ld	c,$1
;             if (remaining > 0) {
    636d: 7c           	ld	a,h
    636e: 07           	rlca
    636f: 9f           	sbc	a,a
    6370: 2f           	cpl
    6371: 47           	ld	b,a
    6372: 7c           	ld	a,h
    6373: b5           	or	l
    6374: a0           	and	b
    6375: 20 09        	jr	nz,$6380
;                 dma_transfer_size = bytes_left_to_read;
    6377: eb           	ex	de,hl
    6378: 22 27 67     	ld	($6727),hl              ; 0x6727 <_dma_transfer_size>
    637b: 21 00 00     	ld	hl,$0
    637e: 0e 00        	ld	c,$0
    6380: 79           	ld	a,c
    6381: 32 3a 67     	ld	($673a),a               ; 0x673a <_more_tracks_to_read>
    6384: 22 3b 67     	ld	($673b),hl              ; 0x673b <_bytes_left_to_read>
;         if (fdc_get_result_bytes(FDC_READ_DATA, 5) != 0) {
    6387: 3e 06        	ld	a,$6
    6389: 2e 05        	ld	l,$5
    638b: cd 16 62     	call	$6216
    638e: b7           	or	a
    638f: 20 3d        	jr	nz,$63ce
;         dma_transfer_address += dma_transfer_size;
    6391: 2a 27 67     	ld	hl,($6727)              ; 0x6727 <_dma_transfer_size>
    6394: eb           	ex	de,hl
    6395: 2a 36 67     	ld	hl,($6736)              ; 0x6736 <_dma_transfer_address>
    6398: 19           	add	hl,de
    6399: 22 36 67     	ld	($6736),hl              ; 0x6736 <_dma_transfer_address>
;         dma_transfer_size = 0;
    639c: 21 00 00     	ld	hl,$0
    639f: 22 27 67     	ld	($6727),hl              ; 0x6727 <_dma_transfer_size>
;             fdc_cmd.sector = 1;
    63a2: 3e 01        	ld	a,$1
    63a4: 32 20 67     	ld	($6720),a               ; 0x6720 <_fdc_cmd+0x2>
;             max_head = is_double_sided;
    63a7: 3a 3d 67     	ld	a,($673d)               ; 0x673d <_is_double_sided>
    63aa: 57           	ld	d,a
;             if (max_head == fdc_cmd.head) {
    63ab: 3a 1f 67     	ld	a,($671f)               ; 0x671f <_fdc_cmd+0x1>
    63ae: ba           	cp	d
    63af: 20 07        	jr	nz,$63b8
;                 fdc_cmd.cylinder++;
    63b1: 21 1e 67     	ld	hl,$671e
    63b4: 34           	inc	(hl)
    63b5: af           	xor	a
;             } else {
    63b6: 18 01        	jr	$63b9
;                 fdc_cmd.head++;
    63b8: 3c           	inc	a
    63b9: 32 1f 67     	ld	($671f),a               ; 0x671f <_fdc_cmd+0x1>
;         if (!more_tracks_to_read) {
    63bc: 3a 3a 67     	ld	a,($673a)               ; 0x673a <_more_tracks_to_read>
    63bf: b7           	or	a
    63c0: 20 91        	jr	nz,$6353
; }
    63c2: c9           	ret
;         if (r == 1) {
    63c3: 3d           	dec	a
    63c4: 20 03        	jr	nz,$63c9
;             prom1_if_present();
    63c6: c3 04 63     	jp	$6304
;             error_display_halt(0x06);
    63c9: 3e 06        	ld	a,$6
    63cb: c3 0c 61     	jp	$610c
;             error_display_halt(0x28);
    63ce: 3e 28        	ld	a,$28
    63d0: c3 0c 61     	jp	$610c

000063d3 <_nothing_int>:
; }
    63d3: fb           	ei
    63d4: ed 4d        	reti

000063d6 <_refresh_crt_dma_50hz_interrupt>:
; void refresh_crt_dma_50hz_interrupt(void) __critical __interrupt(1) {
    63d6: d9           	exx
    63d7: 08           	ex	af,af'
; DEFPORT(crt_cmd,      0x01)
    63d8: db 01        	in	a,($1)
; DEFPORT(dma_smsk,     0xFA)
    63da: 3e 06        	ld	a,$6
    63dc: d3 fa        	out	($fa),a
; DEFPORT(dma_clbp,     0xFC)
    63de: af           	xor	a
    63df: d3 fc        	out	($fc),a
; DEFPORT(dma_ch2_addr, 0xF4)
    63e1: d3 f4        	out	($f4),a
    63e3: 3e 7a        	ld	a,$7a
    63e5: d3 f4        	out	($f4),a
; DEFPORT(dma_ch2_wc,   0xF5)
    63e7: 3e cf        	ld	a,$cf
    63e9: d3 f5        	out	($f5),a
    63eb: 3e 07        	ld	a,$7
    63ed: d3 f5        	out	($f5),a
; DEFPORT(dma_smsk,     0xFA)
    63ef: 3e 02        	ld	a,$2
    63f1: d3 fa        	out	($fa),a
; DEFPORT(ctc2,         0x0E)
    63f3: 3e d7        	ld	a,$d7
    63f5: d3 0e        	out	($e),a
    63f7: 3e 01        	ld	a,$1
    63f9: d3 0e        	out	($e),a
; }
    63fb: 08           	ex	af,af'
    63fc: d9           	exx
    63fd: fb           	ei
    63fe: ed 4d        	reti

00006400 <_floppy_completed_operation_interrupt>:
; void floppy_completed_operation_interrupt(void) __critical __interrupt(2) {
    6400: d9           	exx
    6401: 08           	ex	af,af'
    6402: fd e5        	push	iy
;     floppy_operation_completed_flag = 2; /* Only non-zero value */
    6404: 3e 02        	ld	a,$2
    6406: 32 32 67     	ld	($6732),a               ; 0x6732 <_floppy_operation_completed_flag>
; DEFPORT(fdc_status,   0x04)
    6409: db 04        	in	a,($4)
;     if (fdc_status() & 0b00010000) {    /* CB=1: result phase ready */
    640b: e6 10        	and	$10
    640d: 20 05        	jr	nz,$6414
;         fdc_sense_interrupt();
    640f: cd ce 60     	call	$60ce
    6412: 18 03        	jr	$6417
;         fdc_read_result();
    6414: cd e5 60     	call	$60e5
; }
    6417: fd e1        	pop	iy
    6419: 08           	ex	af,af'
    641a: d9           	exx
    641b: fb           	ei
    641c: ed 4d        	reti

0000641e <_main_relocated>:
;     SET_SP(ROM_STACK);
    641e: 31 ff bf     	ld	sp,$bfff
;     __asm__ volatile("ld i, a" : : "a"(page));
    6421: 3e 60        	ld	a,$60
    6423: ed 47        	ld	i,a
; static inline void intrinsic_im_2(void) { __asm__ volatile("im 2"); }
    6425: ed 5e        	im	2
; DEFPORT(pio_a_ctrl,   0x12)
    6427: 3e 02        	ld	a,$2
    6429: d3 12        	out	($12),a
; DEFPORT(pio_b_ctrl,   0x13)
    642b: 3e 04        	ld	a,$4
    642d: d3 13        	out	($13),a
; DEFPORT(pio_a_ctrl,   0x12)
    642f: 3e 4f        	ld	a,$4f
    6431: d3 12        	out	($12),a
; DEFPORT(pio_b_ctrl,   0x13)
    6433: 3e 0f        	ld	a,$f
    6435: d3 13        	out	($13),a
; DEFPORT(pio_a_ctrl,   0x12)
    6437: 3e 83        	ld	a,$83
    6439: d3 12        	out	($12),a
; DEFPORT(pio_b_ctrl,   0x13)
    643b: d3 13        	out	($13),a
; DEFPORT(ctc0,         0x0C)
    643d: 3e 08        	ld	a,$8
    643f: d3 0c        	out	($c),a
    6441: 3e 47        	ld	a,$47
    6443: d3 0c        	out	($c),a
    6445: 3e 20        	ld	a,$20
    6447: d3 0c        	out	($c),a
; DEFPORT(ctc1,         0x0D)
    6449: 3e 47        	ld	a,$47
    644b: d3 0d        	out	($d),a
    644d: 3e 20        	ld	a,$20
    644f: d3 0d        	out	($d),a
; DEFPORT(ctc2,         0x0E)
    6451: 3e d7        	ld	a,$d7
    6453: d3 0e        	out	($e),a
    6455: 3e 01        	ld	a,$1
    6457: d3 0e        	out	($e),a
; DEFPORT(ctc3,         0x0F)
    6459: 3e d7        	ld	a,$d7
    645b: d3 0f        	out	($f),a
    645d: 3e 01        	ld	a,$1
    645f: d3 0f        	out	($f),a
; DEFPORT(dma_cmd,      0xF8)
    6461: 3e 20        	ld	a,$20
    6463: d3 f8        	out	($f8),a
; DEFPORT(dma_mode,     0xFB)
    6465: 3e c0        	ld	a,$c0
    6467: d3 fb        	out	($fb),a
    6469: 16 00        	ld	d,$0
; DEFPORT(dma_smsk,     0xFA)
    646b: af           	xor	a
    646c: d3 fa        	out	($fa),a
; DEFPORT(dma_mode,     0xFB)
    646e: 3e 4a        	ld	a,$4a
    6470: d3 fb        	out	($fb),a
; DEFPORT(crt_cmd,      0x01)
    6472: af           	xor	a
    6473: d3 01        	out	($1),a
; DEFPORT(crt_param,    0x00)
    6475: 3e 4f        	ld	a,$4f
    6477: d3 00        	out	($0),a
    6479: 3e 98        	ld	a,$98
    647b: d3 00        	out	($0),a
    647d: 3e 9a        	ld	a,$9a
    647f: d3 00        	out	($0),a
    6481: 3e 5d        	ld	a,$5d
    6483: d3 00        	out	($0),a
; DEFPORT(crt_cmd,      0x01)
    6485: 3e 80        	ld	a,$80
    6487: d3 01        	out	($1),a
; DEFPORT(crt_param,    0x00)
    6489: af           	xor	a
    648a: d3 00        	out	($0),a
    648c: d3 00        	out	($0),a
; DEFPORT(crt_cmd,      0x01)
    648e: 3e e0        	ld	a,$e0
    6490: d3 01        	out	($1),a
; DEFPORT(sw1,          0x14)
    6492: db 14        	in	a,($14)
;     if ((read_sw1() & 0x02) == 0) {
    6494: e6 02        	and	$2
    6496: 20 49        	jr	nz,$64e1
; DEFPORT(chargen_char, 0xD1)    /* SEM 702 character generator: character number */
    6498: af           	xor	a
    6499: d3 d1        	out	($d1),a
; DEFPORT(chargen_dot,  0xD2)    /* SEM 702 character generator: dot line number */
    649b: d3 d2        	out	($d2),a
    649d: 21 00 20     	ld	hl,$2000
    64a0: 1e 00        	ld	e,$0
;     for (ch = 0; ch < 128; ch++) {
    64a2: 7a           	ld	a,d
    64a3: fe 80        	cp	$80
    64a5: 28 3a        	jr	z,$64e1
;         for (line = 0; line < 16; line++) {
    64a7: 7b           	ld	a,e
    64a8: fe 10        	cp	$10
    64aa: 28 2e        	jr	z,$64da
    64ac: 22 4e 67     	ld	($674e),hl              ; 0x674e <__sfrend_syscall>
;             byte src = *font++;
    64af: 66           	ld	h,(hl)
    64b0: 0e 00        	ld	c,$0
    64b2: 2e 00        	ld	l,$0
;             for (i = 0; i < 8; i++) {
    64b4: 7d           	ld	a,l
    64b5: fe 08        	cp	$8
    64b7: 28 11        	jr	z,$64ca
;                 reversed >>= 1;
    64b9: 79           	ld	a,c
    64ba: cb 3f        	srl	a
    64bc: 4f           	ld	c,a
;                 if (src & 0x80)
    64bd: 7c           	ld	a,h
    64be: e6 80        	and	$80
    64c0: b1           	or	c
    64c1: 4f           	ld	c,a
;                 src <<= 1;
    64c2: 7c           	ld	a,h
    64c3: 87           	add	a,a
    64c4: 67           	ld	h,a
;             for (i = 0; i < 8; i++) {
    64c5: 7d           	ld	a,l
    64c6: 3c           	inc	a
    64c7: 6f           	ld	l,a
    64c8: 18 ea        	jr	$64b4
    64ca: 2a 4e 67     	ld	hl,($674e)              ; 0x674e <__sfrend_syscall>
;             byte src = *font++;
    64cd: 23           	inc	hl
; DEFPORT(chargen_data, 0xD3)    /* SEM 702 character generator: pixel data byte */
    64ce: 79           	ld	a,c
    64cf: d3 d3        	out	($d3),a
;             port_out(chargen_dot, (line + 1) & 0x0F);
    64d1: 7b           	ld	a,e
    64d2: 3c           	inc	a
    64d3: 5f           	ld	e,a
    64d4: e6 0f        	and	$f
; DEFPORT(chargen_dot,  0xD2)    /* SEM 702 character generator: dot line number */
    64d6: d3 d2        	out	($d2),a
;         for (line = 0; line < 16; line++) {
    64d8: 18 cd        	jr	$64a7
;         port_out(chargen_char, ch + 1);
    64da: 7a           	ld	a,d
    64db: 3c           	inc	a
    64dc: 57           	ld	d,a
; DEFPORT(chargen_char, 0xD1)    /* SEM 702 character generator: character number */
    64dd: d3 d1        	out	($d1),a
;     for (ch = 0; ch < 128; ch++) {
    64df: 18 bf        	jr	$64a0
;     delay_ms(391);  /* FDC power-on delay: original ROM uses B=1,C=0xFF ≈ 391ms */
    64e1: 3e 02        	ld	a,$2
    64e3: 2e be        	ld	l,$be
    64e5: cd 5c 60     	call	$605c
; DEFPORT(fdc_status,   0x04)
    64e8: db 04        	in	a,($4)
;     while (port_in(fdc_status) & 0x1F)
    64ea: e6 1f        	and	$1f
    64ec: 20 fa        	jr	nz,$64e8
;     fdc_write_when_ready(0x03);  /* Specify command */
    64ee: 3e 03        	ld	a,$3
    64f0: cd 20 60     	call	$6020
;     fdc_write_when_ready(0x4F);  /* step rate 3ms, head unload 240ms */
    64f3: 3e 4f        	ld	a,$4f
    64f5: cd 20 60     	call	$6020
;     fdc_write_when_ready(0x20);  /* DMA mode */
    64f8: 3e 20        	ld	a,$20
    64fa: cd 20 60     	call	$6020
;     memset(dspstr, ' ', 80 * 25);   /* clear screen */
    64fd: 21 1f 7a     	ld	hl,$7a1f
    6500: 3e 20        	ld	a,$20
    6502: 77           	ld	(hl),a
    6503: 11 20 7a     	ld	de,$7a20
    6506: 01 b0 07     	ld	bc,$7b0
    6509: ed b0        	ldir
;     memcpy(dspstr, BANNER_PTR, BANNER_LENGTH);
    650b: 21 2d 00     	ld	hl,$2d
    650e: 11 00 7a     	ld	de,$7a00
    6511: 01 1f 00     	ld	bc,$1f
    6514: ed b0        	ldir
; DEFPORT(sw1,          0x14)
    6516: db 14        	in	a,($14)
;     memcpy(p, prefix, sizeof prefix - 1);
    6518: 21 ce 66     	ld	hl,$66ce
    651b: 11 50 7a     	ld	de,$7a50
    651e: 01 0e 00     	ld	bc,$e
    6521: ed b0        	ldir
    6523: 5f           	ld	e,a
    6524: 21 5e 7a     	ld	hl,$7a5e
    6527: 16 00        	ld	d,$0
;     for (i = 0; i < 8; i++) {
    6529: 7a           	ld	a,d
    652a: fe 08        	cp	$8
    652c: 28 15        	jr	z,$6543
;         *p++ = (char)('0' + ((sw >> i) & 1));
    652e: 7b           	ld	a,e
    652f: 42           	ld	b,d
    6530: 04           	inc	b
    6531: 05           	dec	b
    6532: 28 04        	jr	z,$6538
    6534: cb 3f        	srl	a
    6536: 10 fc        	djnz	$6534
    6538: e6 01        	and	$1
    653a: f6 30        	or	$30
    653c: 77           	ld	(hl),a
    653d: 23           	inc	hl
;     for (i = 0; i < 8; i++) {
    653e: 7a           	ld	a,d
    653f: 3c           	inc	a
    6540: 57           	ld	d,a
    6541: 18 e6        	jr	$6529
; DEFPORT(dma_smsk,     0xFA)
    6543: 3e 06        	ld	a,$6
    6545: d3 fa        	out	($fa),a
; DEFPORT(dma_clbp,     0xFC)
    6547: af           	xor	a
    6548: d3 fc        	out	($fc),a
; DEFPORT(dma_ch2_addr, 0xF4)
    654a: d3 f4        	out	($f4),a
    654c: 3e 7a        	ld	a,$7a
    654e: d3 f4        	out	($f4),a
; DEFPORT(dma_ch2_wc,   0xF5)
    6550: 3e cf        	ld	a,$cf
    6552: d3 f5        	out	($f5),a
    6554: 3e 07        	ld	a,$7
    6556: d3 f5        	out	($f5),a
; DEFPORT(dma_smsk,     0xFA)
    6558: 3e 02        	ld	a,$2
    655a: d3 fa        	out	($fa),a
; DEFPORT(crt_cmd,      0x01)
    655c: 3e 23        	ld	a,$23
    655e: d3 01        	out	($1),a
;     fdc_isr_delay = 3;
    6560: 3e 03        	ld	a,$3
    6562: 32 38 67     	ld	($6738),a               ; 0x6738 <_fdc_isr_delay>
;     fdc_result_delay = 4;
    6565: 3e 04        	ld	a,$4
    6567: 32 39 67     	ld	($6739),a               ; 0x6739 <_fdc_result_delay>
; DEFPORT(sw1,          0x14)
    656a: db 14        	in	a,($14)
;     is_mini = (read_sw1() >> 7) & 1; /* SW1 bit 7: 0=maxi, 1=mini */
    656c: 07           	rlca
    656d: e6 01        	and	$1
    656f: 32 1d 67     	ld	($671d),a               ; 0x671d <_is_mini>
;     __asm__ volatile("ei");
    6572: fb           	ei
; DEFPORT(sw1,          0x14)
    6573: 3e 01        	ld	a,$1
    6575: d3 14        	out	($14),a
;     retry_count = 5;
    6577: 3e 05        	ld	a,$5
    6579: 32 34 67     	ld	($6734),a               ; 0x6734 <_retry_count>
;     delay_ms(391);  /* motor spin-up: original ROM uses B=1,C=0xFF ≈ 391ms */
    657c: 3e 02        	ld	a,$2
    657e: 2e be        	ld	l,$be
    6580: cd 5c 60     	call	$605c
;     fdc_write_when_ready(FDC_SENSE_DRIVE);
    6583: 3e 04        	ld	a,$4
    6585: cd 20 60     	call	$6020
;     fdc_write_when_ready(drive_select);
    6588: 3a 33 67     	ld	a,($6733)               ; 0x6733 <_drive_select>
    658b: cd 20 60     	call	$6020
;     fdc_result.st0 = fdc_read_when_ready(); /* ST3 (in st0 position) */
    658e: cd 3f 60     	call	$603f
    6591: 32 29 67     	ld	($6729),a               ; 0x6729 <_fdc_result>
;     status = fdc_result.st0 & 0b00100011; /* RDY + HD + US */
    6594: e6 23        	and	$23
    6596: 32 4e 67     	ld	($674e),a               ; 0x674e <__sfrend_syscall>
;     fdc_write_when_ready(FDC_RECALIBRATE);
    6599: 3e 07        	ld	a,$7
    659b: cd 20 60     	call	$6020
;     fdc_write_when_ready(drive_select);
    659e: 3a 33 67     	ld	a,($6733)               ; 0x6733 <_drive_select>
    65a1: cd 20 60     	call	$6020
;     if (status != (drive_select + 0b00100000) || /* expect RDY + matching drive */
    65a4: 3a 33 67     	ld	a,($6733)               ; 0x6733 <_drive_select>
    65a7: c6 20        	add	a,$20
    65a9: 38 31        	jr	c,$65dc
    65ab: f5           	push	af
    65ac: 3a 4e 67     	ld	a,($674e)               ; 0x674e <__sfrend_syscall>
    65af: 57           	ld	d,a
    65b0: f1           	pop	af
    65b1: ba           	cp	d
    65b2: 20 28        	jr	nz,$65dc
;         verify_seek_result(0) != 0) {
    65b4: af           	xor	a
    65b5: cd 7b 61     	call	$617b
;     if (status != (drive_select + 0b00100000) || /* expect RDY + matching drive */
    65b8: b7           	or	a
    65b9: 20 21        	jr	nz,$65dc
;     fdc_cmd.cylinder = 0;
    65bb: af           	xor	a
    65bc: 32 1e 67     	ld	($671e),a               ; 0x671e <_fdc_cmd>
;     fdc_cmd.head = 1;
    65bf: 3e 01        	ld	a,$1
    65c1: 32 1f 67     	ld	($671f),a               ; 0x671f <_fdc_cmd+0x1>
;     fdc_cmd.sector = 1;
    65c4: 32 20 67     	ld	($6720),a               ; 0x6720 <_fdc_cmd+0x2>
;     if (fdc_detect_sector_size_and_density() == 0) {
    65c7: cd 7b 62     	call	$627b
    65ca: b7           	or	a
    65cb: 20 05        	jr	nz,$65d2
;         is_double_sided = 1; /* side 1 present */
    65cd: 3e 01        	ld	a,$1
    65cf: 32 3d 67     	ld	($673d),a               ; 0x673d <_is_double_sided>
;     fdc_cmd.head = 0;
    65d2: af           	xor	a
    65d3: 32 1f 67     	ld	($671f),a               ; 0x671f <_fdc_cmd+0x1>
;     if (fdc_detect_sector_size_and_density() != 0) {
    65d6: cd 7b 62     	call	$627b
    65d9: b7           	or	a
    65da: 28 05        	jr	z,$65e1
    65dc: cd 04 63     	call	$6304
;     for (;;);  // halt if ever getting back here.
    65df: 18 fe        	jr	$65df
; DEFPORT(ramen,        0x18)
    65e1: 3e 01        	ld	a,$1
    65e3: d3 18        	out	($18),a
;         fdc_read_data_from_current_location(dma_transfer_size);
    65e5: 2a 27 67     	ld	hl,($6727)              ; 0x6727 <_dma_transfer_size>
    65e8: cd 50 63     	call	$6350
;         if (fdc_cmd.cylinder != 0) {
    65eb: 3a 1e 67     	ld	a,($671e)               ; 0x671e <_fdc_cmd>
    65ee: b7           	or	a
    65ef: 20 05        	jr	nz,$65f6
;         fdc_detect_sector_size_and_density();
    65f1: cd 7b 62     	call	$627b
;     while (1) {
    65f4: 18 ef        	jr	$65e5
;     disk_type = 1;
    65f6: 3e 01        	ld	a,$1
    65f8: 32 26 67     	ld	($6726),a               ; 0x6726 <_disk_type>
;     boot_floppy_or_prom();
    65fb: cd fe 65     	call	$65fe

000065fe <_boot_floppy_or_prom>:
;     if (compare_6bytes((const byte *) RC700_SIG_OFF, (const byte *) " RC700") == 0) {
    65fe: 21 02 00     	ld	hl,$2
    6601: 11 ee 66     	ld	de,$66ee
    6604: cd c2 62     	call	$62c2
    6607: b7           	or	a
    6608: 20 1c        	jr	nz,$6626
    660a: 21 80 0b     	ld	hl,$b80
    660d: 11 00 0d     	ld	de,$d00
    6610: 01 20 00     	ld	bc,$20
    6613: 22 50 67     	ld	($6750),hl              ; 0x6750 <__sfrend_main_relocated>
    6616: 22 3e 67     	ld	($673e),hl              ; 0x673e <_boot_dir>
;         while ((word) boot_dir < 0x0D00) {
    6619: 7d           	ld	a,l
    661a: 93           	sub	e
    661b: 7c           	ld	a,h
    661c: 9a           	sbc	a,d
    661d: 30 4d        	jr	nc,$666c
;             if (*boot_dir == 0) {
    661f: 7e           	ld	a,(hl)
    6620: b7           	or	a
    6621: 20 23        	jr	nz,$6646
;                 boot_dir += 0x20;
    6623: 09           	add	hl,bc
;                 continue;
    6624: 18 ed        	jr	$6613
;     if (compare_6bytes((const byte *) RC702_SIG_OFF, (const byte *) msg_rc702) == 0) {
    6626: 21 08 00     	ld	hl,$8
    6629: 11 14 67     	ld	de,$6714
    662c: cd c2 62     	call	$62c2
    662f: b7           	or	a
    6630: 20 09        	jr	nz,$663b
;         jump_to(*(volatile word *) 0x0000);
    6632: 2a 00 00     	ld	hl,($0)                 ; 0x0 <_start>
    6635: e5           	push	hl
    6636: fd e1        	pop	iy
    6638: cd 1b 67     	call	$671b
;     halt_msg(" **NO KATALOG** ", 16);
    663b: 21 dd 66     	ld	hl,$66dd
    663e: 11 f0 7a     	ld	de,$7af0
    6641: 01 10 00     	ld	bc,$10
    6644: 18 2f        	jr	$6675
;             if (check_sysfile(boot_dir, "SYSM") == 0) {
    6646: 2a 50 67     	ld	hl,($6750)              ; 0x6750 <__sfrend_main_relocated>
    6649: 11 b0 66     	ld	de,$66b0
    664c: cd d9 62     	call	$62d9
    664f: 2a 50 67     	ld	hl,($6750)              ; 0x6750 <__sfrend_main_relocated>
;             if (check_sysfile(boot_dir, "SYSM") == 0) {
    6652: b7           	or	a
    6653: 20 17        	jr	nz,$666c
    6655: 11 20 00     	ld	de,$20
;                 boot_dir += 0x20;
    6658: 19           	add	hl,de
    6659: 22 3e 67     	ld	($673e),hl              ; 0x673e <_boot_dir>
;                 if (*boot_dir != 0 &&
    665c: 7e           	ld	a,(hl)
    665d: b7           	or	a
    665e: 28 0c        	jr	z,$666c
;                     check_sysfile(boot_dir, "SYSC") == 0) {
    6660: 11 c9 66     	ld	de,$66c9
    6663: cd d9 62     	call	$62d9
;                 if (*boot_dir != 0 &&
    6666: b7           	or	a
    6667: 20 03        	jr	nz,$666c
;                     floppy_legacy_boot();
    6669: cd 27 63     	call	$6327
;         halt_msg(" **NO SYSTEM FILES** ", 21);
    666c: 21 9a 66     	ld	hl,$669a
    666f: 11 f0 7a     	ld	de,$7af0
    6672: 01 15 00     	ld	bc,$15
    6675: ed b0        	ldir
    6677: cd b7 62     	call	$62b7

0000667a <_eot_gap3_table>:
    667a: 1a 07 34 07 0f 0e 1a 0e         ..4.....
    6682: 08 1b 0f 1b 00 00 08 35         .......5
    668a: 10 07 20 07 09 0e 10 0e         .. .....
    6692: 05 1b 09 1b 00 00 05 35         .......5

0000669a <L_.str.5>:
    669a: 20 2a 2a 4e 4f 20 53 59          **NO SY
    66a2: 53 54 45 4d 20 46 49 4c         STEM FIL
    66aa: 45 53 2a 2a 20 00               ES** .

000066b0 <L_.str.3>:
    66b0: 53 59 53 4d 00                  SYSM.

000066b5 <L_.str>:
    66b5: 2a 2a 44 49 53 4b 45 54         **DISKET
    66bd: 54 45 20 45 52 52 4f 52         TE ERROR
    66c5: 2a 2a 20 00                     ** .

000066c9 <L_.str.4>:
    66c9: 53 59 53 43 00                  SYSC.

000066ce <_display_sw1_status.prefix>:
    66ce: 53 57 31 20 31 32 33 34         SW1 1234
    66d6: 35 36 37 38 3a 20 00            5678: .

000066dd <L_.str.6>:
    66dd: 20 2a 2a 4e 4f 20 4b 41          **NO KA
    66e5: 54 41 4c 4f 47 2a 2a 20         TALOG** 
    66ed: 00                              .

000066ee <L_.str.2>:
    66ee: 20 52 43 37 30 30 00             RC700.

000066f5 <L_.str.1>:
    66f5: 20 2a 2a 4e 4f 20 44 49          **NO DI
    66fd: 53 4b 45 54 54 45 20 4e         SKETTE N
    6705: 4f 52 20 4c 49 4e 45 50         OR LINEP
    670d: 52 4f 47 2a 2a 20 00            ROG** .

00006714 <_msg_rc702>:
    6714: 20 52 43 37 30 32 00             RC702.

0000671b <__call_iy>:
    671b: fd e9        	jp	(iy)
